(lp0
(dp1
S'text'
p2
VIn data odierna &egrave; prevista limitazione della circolazione veicolare in Via Aquino Molara per lavori RAP,possibili rallentamenti,procedere con prudenza.
p3
sS'latLng'
p4
(lp5
F38.08174544847885
aF13.309951171997
asS'id'
p6
S'1476'
p7
sa(dp8
g2
VVia dei Mille altezza civ.181 chiusura parziale della sede stradale per lavori urgenti alla rete telefonica,procedere con prudenza.
p9
sg4
(lp10
F38.1076527
aF13.37136129999999
asg6
S'1477'
p11
sa(dp12
g2
VVia Messina Marine altezza civ. 717 chiusura parziale della carreggiata per lavori urgenti alla rete fognaria,procedere con prudenza.
p13
sg4
(lp14
F38.0971438
aF13.419368500000019
asg6
S'1478'
p15
sa(dp16
g2
VPiazza Anita Garibaldi dalle ore 9.00 alle ore 13.00 manifestazione &quot;Giornata della Memoria delle vittime innocenti di mafia&quot;,possibili rallentamenti nelle zone limitrofe,si consigliano percorsi alternativi.
p17
sg4
(lp18
F38.1030171
aF13.384904300000017
asg6
S'1479'
p19
sa(dp20
g2
VLimitazione della circolazione veicolare in Foro Umberto I carreggiata lato monte nel tratto compreso tra il varco precedente la Salita Mura delle Cattive e la stessa. &nbsp;Istituzione del doppio senso di marcia&nbsp;nella carreggiata lato mare, nel medesimo tratto,possibili rallentamenti</p> <p>&nbsp;
p21
sg4
(lp22
F38.11763398474785
aF13.373234816394074
asg6
S'1480'
p23
sa(dp24
g2
VVia Castellana altezza civico 195 si segnala incidente stadale - procedere con prudenza.
p25
sg4
(lp26
F38.1274834
aF13.285467199999971
asg6
S'1482'
p27
sa(dp28
g2
VVia Messina Marine 429 si segnala sinistro stradale - Possibili rallentamenti.
p29
sg4
(lp30
F38.1018234
aF13.397284200000058
asg6
S'1483'
p31
sa(dp32
g2
VOggi ore 21.00 con concentramento in P.zza Politeama si svolger&agrave; un evento in bici per le vie del centro cittadino con traffico veicolare aperto e nel rispetto delle norme sulla circolazione stradale.
p33
sg4
(lp34
F38.1253501
aF13.355899099999988
asg6
S'1484'
p35
sa(dp36
g2
VVia Aquino Molara lavori stradali Rap possibili disagi alla circolazione
p37
sg4
(lp38
F38.0797524
aF13.30471549999993
asg6
S'1485'
p39
sa(dp40
g2
VForo Umberto I&deg; carreggiata lato monte tratto antistante Mura delle Cattive lavori stradali con chiusura al traffico, possibili disagi alla circolazione.
p41
sg4
(lp42
F38.1166675
aF13.374307700000031
asg6
S'1486'
p43
sa(dp44
g2
VV. D. Scin&agrave; tratto largo Alfano e V. E. Parisi chiusura al traffico, possibili disagi alla cicolazione
p45
sg4
(lp46
F38.1279693
aF13.358630100000028
asg6
S'1487'
p47
sa(dp48
g2
VPiazza Indipendenza innanzi Presidenza Regione presidio di lavoratori, possibili disagi alla circolazione
p49
sg4
(lp50
F38.1108974
aF13.351589699999977
asg6
S'1488'
p51
sa(dp52
g2
VLAVORI URGENTI AMAP PER PROBLEMI IGIENICO SANITARI, VIA B.TTO GRAVINA, ALT. CIV.30
p53
sg4
(lp54
F38.12706083919831
aF13.36090714232796
asg6
S'1489'
p55
sa(dp56
g2
VINCIDENTE STRADALE IN VIA R.SICILIANA - C.L. - DIR. TP, POSSIBILI RALLENTAMENTI.
p57
sg4
(lp58
F38.09744374985079
aF13.334429464587402
asg6
S'1490'
p59
sa(dp60
g2
VVia dei Mille altezza civ.181 chiusura parziale della sede stradale per lavori urgenti alla rete telefonica,procedere con prudenza.
p61
sg4
(lp62
F38.10772023606923
aF13.371522232540883
asg6
S'1491'
p63
sa(dp64
g2
VVia Messina Marine angolo via Calogero Zucchetto sinistro stradale,possibili rallentamenti,procedere con prudenza.
p65
sg4
(lp66
F38.09679432813484
aF13.423288017511368
asg6
S'1492'
p67
sa(dp68
g2
VVia Schillaci lavori sede stradale possibili rallentamenti.
p69
sg4
(lp70
F38.2012781
aF13.283662100000015
asg6
S'1493'
p71
sa(dp72
g2
VVia Orazio Antinori altezza civico 2 lavori sede stradale possibile rallentamenti.
p73
sg4
(lp74
F38.1160108
aF13.346857399999976
asg6
S'1494'
p75
sa(dp76
g2
VVia Brancaccio altezza civico 124 lavori sede stradale possibili rallentamenti.
p77
sg4
(lp78
F38.1016177
aF13.37910839999995
asg6
S'1495'
p79
sa(dp80
g2
VVia Della Favorita incidente stradale possibili rallentamenti.
p81
sg4
(lp82
F38.1493149
aF13.35273749999999
asg6
S'1496'
p83
sa(dp84
g2
VVia Cala direzione via F. Crispi incidente stradale possibili rallentamenti.
p85
sg4
(lp86
F38.11976592528217
aF13.366698925378387
asg6
S'1497'
p87
sa(dp88
g2
VPiazza Giulio Cesare altezza via Palmeri incidente stradale possibili rallentamenti.
p89
sg4
(lp90
F38.110423591332484
aF13.367403573541196
asg6
S'1498'
p91
sa(dp92
g2
VViale Regione Siciliana direzione Catania altezza ponte Bonagia incidente stradale possibili rallentamenti.
p93
sg4
(lp94
F38.08743154129582
aF13.36049142222896
asg6
S'1499'
p95
sa(dp96
g2
VVia Filippo Parlatore altezza civico 63 incidente stradale possibili rallentamenti.
p97
sg4
(lp98
F38.1242909
aF13.343895599999996
asg6
S'1500'
p99
sa(dp100
g2
VVia Libert&agrave; civ.30,incidente stradale possibili rallentamenti procedere con prudenza.
p101
sg4
(lp102
F38.12782139999999
aF13.353155799999968
asg6
S'1501'
p103
sa(dp104
g2
VViale Regione Siciliana carreggiata centrale direzione Catania altezza sottoponte Via Pitre&#39;,incidente stradale possibili rallentamenti procedere con prudenza.
p105
sg4
(lp106
F38.11155765883546
aF13.329123242138621
asg6
S'1502'
p107
sa(dp108
g2
VZona Stadio dalle ore 17.45, chiusura 1&deg; anello Via Leoni, Viale del Fante, Via del Carabiniere, Viale Croce Rossa, Piazza Papa G.nni Paolo II, Via A. Cassar&agrave;, Piazzetta Salerno
p109
sg4
(lp110
F38.1527423
aF13.34220890000006
asg6
S'1503'
p111
sa(dp112
g2
VZona Stadio dalle ore 18.45, chiusura 2&deg; anello Piazza Leoni, Piazza V.Veneto, Viale Croce Rossa, Via A. De Gasperi, Viale Strasburgo, Via Villa Sofia, Viale Ercole
p113
sg4
(lp114
F38.1527423
aF13.34220890000006
asg6
S'1504'
p115
sa(dp116
g2
VVia D. Scin&agrave;, tratto compreso tra Largo Alfano e Via E. Pais, chiusura al transito causa lavori su rete fognaria.
p117
sg4
(lp118
F38.12930275476459
aF13.359499135720853
asg6
S'1505'
p119
sa(dp120
g2
VVia Foro Umberto I&deg;, carreggiata lato monte nel tratto compreso tra il varco precedente la Salita Mura delle Cattive e la stessa, chiusura al transito. I veicoli vengono deviati sulla carreggiata lato mare dove &egrave; stato istituito il doppio senso di marcia. Prestare attenzione a personale su strada e mezzi d&#39;opera.
p121
sg4
(lp122
F38.11864312695398
aF13.372223493643105
asg6
S'1506'
p123
sa(dp124
g2
VViale Cesare Brandi angolo Via San Nicola, causa lavori su rete fognaria, chiusura parziale al transito.
p125
sg4
(lp126
F38.183229710838866
aF13.311574090460226
asg6
S'1507'
p127
sa(dp128
g2
VPiazzetta della Canna, causa evento &quot;Festa di Primavera&quot;, chiusura al transito veicolare dalle ore 19.00 alle ore 24.00.
p129
sg4
(lp130
F38.115697
aF13.358931999999982
asg6
S'1508'
p131
sa(dp132
g2
VVia Olio di Lino altezza Via Uccello, causa lavori rifacimento manto stradale, possibili rallentamenti.
p133
sg4
(lp134
F38.080785472335116
aF13.318818362548882
asg6
S'1509'
p135
sa(dp136
g2
VCorso Caltafimi altezza SS 186 (Circonvallazione per Monreale), causa lavori su rete telefonica, possibili rallentamenti.
p137
sg4
(lp138
F38.09339161223349
aF13.307341486215591
asg6
S'1510'
p139
sa(dp140
g2
VCorso Calatafimi di fronte il Distretto Militare di Palemo previsti lavori di scavo. Possibili rallentamenti al flusso veicolare.
p141
sg4
(lp142
F38.10731276507416
aF13.341071169928
asg6
S'1511'
p143
sa(dp144
g2
VVia Cesare Brandi angolo Via San Nicola previsti lavori su sede stradale. Possibili rallentamenti al flusso veicolare.
p145
sg4
(lp146
F38.1852874
aF13.313698400000021
asg6
S'1512'
p147
sa(dp148
g2
VForo Umberto I carreggiata lato monte nel tratto compreso tra il varco precedente la Salita Mura delle Cattive e la stessa carreggiata chiusura al transito veicolare causa lavori su sede stradale.
p149
sg4
(lp150
F38.11941920459863
aF13.37186152537845
asg6
S'1513'
p151
sa(dp152
g2
VForo Umberto I carreggiata lato mare sempre nel tratto stradale (come da comunicazione precedente)in prossimit&agrave; della Salita delle Cattive istituzione del doppio senso di marcia causa lavori su sede stradale.Possibili rallentamenti al flusso veicolare.
p153
sg4
(lp154
F38.11926727269343
aF13.371904440722687
asg6
S'1514'
p155
sa(dp156
g2
VVia D. Scin&agrave; nel tratto compreso tra Largo Alfano e Via Ettore Pais chiusura al transito veicolare causa lavori di scavo. Possibili rallentamenti al flusso veicolare.
p157
sg4
(lp158
F38.1285395289471
aF13.359043133868454
asg6
S'1515'
p159
sa(dp160
g2
VPiazza S. Eligio prevista dalle ore 10.00 alle ore 17.00 manifestazione. .con limitazione della circolazione veicolare
p161
sg4
(lp162
F38.1188921
aF13.363879900000029
asg6
S'1516'
p163
sa(dp164
g2
VVia Papa Sergio possibili rallentamenti al flusso veicolare causa sinistro stradale. Procedere con prudenza
p165
sg4
(lp166
F38.1522592
aF13.370640200000025
asg6
S'1517'
p167
sa(dp168
g2
VVia Archimede altezza Via I.Carini momentanea chiusura al transito veicolare per motivi di sicurezza stradale.
p169
sg4
(lp170
F38.12911876543175
aF13.355718394303949
asg6
S'1518'
p171
sa(dp172
g2
VVia Archimede riapertura al normale transito veicolare. Normale flusso veicolare ripristinato.
p173
sg4
(lp174
F38.12919369999999
aF13.355796400000031
asg6
S'1519'
p175
sa(dp176
g2
VViale della Regione Siciliana carreggiata laterale con Dir. CT prossimit&agrave; rotonda Via Oreto possibili rallentamenti al flusso veicolare causa sinistro stradale.
p177
sg4
(lp178
F38.090759253724265
aF13.377465158700943
asg6
S'1520'
p179
sa(dp180
g2
VCorso Calatafimi prossimit&agrave; Viale della Regione Siciliana possibili rallentamenti al flusso veicolare causa sinistro strsdale.
p181
sg4
(lp182
F38.10386539534135
aF13.33231622053222
asg6
S'1521'
p183
sa(dp184
g2
VViale della Regione Siciliana/Via Oreto con Dir. CT normale flusso veicolare ripristinato.
p185
sg4
(lp186
F38.091058672544676
aF13.377403004406688
asg6
S'1522'
p187
sa(dp188
g2
VLungomare Cristoforo Colombo/Via Vasco de Gama possibili rallentamenti al flusso veicolare causa sinistro stradale. Procedere con prudenza.
p189
sg4
(lp190
F38.192075352119694
aF13.34264366878665
asg6
S'1523'
p191
sa(dp192
g2
VVia Messina Marine,245 possibili rallentamenti causa sinistro stradale. Procedere con prudenza
p193
sg4
(lp194
F38.1056201
aF13.387506099999996
asg6
S'1524'
p195
sa(dp196
g2
VPiazza Don Bosco possibili rallentamenti al flusso veicolare causa sinistro stradale. Procedere con prudenza.
p197
sg4
(lp198
F38.1445285
aF13.345284200000037
asg6
S'1525'
p199
sa(dp200
g2
VOggi dalle ore 08.00 alle 14.00 verr&agrave; chiuso al transito veicolare il Parco della Favorita per lo svolgimento della manifestazione &nbsp;&quot;La domenica in Favorita&quot;
p201
sg4
(lp202
F38.1539245
aF13.34680149999997
asg6
S'1526'
p203
sa(dp204
g2
VOggi V. Libert&agrave;&nbsp;tratto da Piazza Mordini a piazza Ruggero Settimo chiusura al transito veicolare dalle ore 08.00 alle 20.00
p205
sg4
(lp206
F38.1301682
aF13.351910399999952
asg6
S'1527'
p207
sa(dp208
g2
VOggi V. Ruggero Settimo tratto da piazza R. Settimo&nbsp;a V. Cavour&nbsp;chiusura al transito veicolare dalle ore 08.00 alle 20.00
p209
sg4
(lp210
F38.1246674
aF13.356491799999958
asg6
S'1528'
p211
sa(dp212
g2
VOggi dalle ore 08.00 alle 13.00 per lo svolgimento di una&nbsp;manifestazione sportiva verranno chiuse al transito veicolare le seguenti strade: V. S.S. Mediatrice, Piazza C. Barberino, V. Vito Schifani, V. M. Ciaula, P.zza Donaudi, V. P. Platania, V. Palmerino, V. R. Casalaina
p213
sg4
(lp214
F38.100941
aF13.334081900000001
asg6
S'1529'
p215
sa(dp216
g2
VVia Notarbartolo altezza via Umberto Giordano lavori sede stradale possibili rallentamenti.
p217
sg4
(lp218
F38.13136134264788
aF13.340588260821505
asg6
S'1530'
p219
sa(dp220
g2
VPiazza Molara lavori sede stradale possibili rallentamenti.
p221
sg4
(lp222
F38.0818049
aF13.31045169999993
asg6
S'1531'
p223
sa(dp224
g2
VLargo Geraci incidente stradale possibili rallentamenti.
p225
sg4
(lp226
F38.1375657
aF13.334556900000052
asg6
S'1532'
p227
sa(dp228
g2
VVia Gaetano Mosca altezza civico 29 lavori sede stradale possibili rallentamenti.
p229
sg4
(lp230
F38.1140078
aF13.349714100000028
asg6
S'1533'
p231
sa(dp232
g2
VViale Regione Siciliana direzione Catania corsia laterale altezza via Oliveri Mandal&agrave; incidente stradale possibili rallentamenti.
p233
sg4
(lp234
F38.1443024765685
aF13.329895560327145
asg6
S'1534'
p235
sa(dp236
g2
VViale Luigi Castiglia altezza via Palazzotto incidente stradale possibili ralentamenti.
p237
sg4
(lp238
F38.11510012476157
aF13.335091800247255
asg6
S'1535'
p239
sa(dp240
g2
VVia &nbsp;Cesare Terranova altezza civico 29 lavori sede stradale possibili rallentamenti.
p241
sg4
(lp242
F38.0965525
aF13.319745199999943
asg6
S'1536'
p243
sa(dp244
g2
VOggi nel turno mattinale dalle ore 11.00 alle ore 14.00 e nel turno pomeridiano dalle ore 17.00 alle ore 20.00 assemblea personale Polizia Municipale.
p245
sg4
(lp246
F38.124856
aF13.313008299999979
asg6
S'1537'
p247
sa(dp248
g2
VVia Cesare Terranova, nr.29 previsti per il 28/03/2017 lavori su sede stradale. Possibili rallentamenti al flusso veicolare.
p249
sg4
(lp250
F38.0965525
aF13.319745199999943
asg6
S'1538'
p251
sa(dp252
g2
VVia Notarbartolo altezza intersezione con la Via Umberto Giordano previsti per il 28/03/17 lavori su sede stradale.Possibili rallentamenti al flusso veicolare.
p253
sg4
(lp254
F38.13145831022007
aF13.340552824745146
asg6
S'1539'
p255
sa(dp256
g2
VVia Vincenzo di Bartolo possibili rallentamenti al flusso veicolare causa sinistro stradale.
p257
sg4
(lp258
F38.1388002
aF13.364937000000054
asg6
S'1540'
p259
sa(dp260
g2
VVia Notarbartolo angolo Via Umberto Giordano chiusura per lavori Amap di razionalizzazione scarico fognario; possibili rallentamenti e/o deviazioni.
p261
sg4
(lp262
F38.1314599
aF13.340554999999995
asg6
S'1541'
p263
sa(dp264
g2
VVia Cesare Terranova 29 lavori Amap di costruzione nuovo allaccio fognario; possibili rallentamenti.
p265
sg4
(lp266
F38.0965525
aF13.319745199999943
asg6
S'1542'
p267
sa(dp268
g2
VViale Reg. Siciliana c.&nbsp;laterale dir. CT civico 687 si segnala incidente stradale - Rallentamenti alla circolazione veicolare.
p269
sg4
(lp270
F38.090416
aF13.376940699999977
asg6
S'1543'
p271
sa(dp272
g2
VVia Molara tratto via Santicelli e piazza Molara si segnala chiusura al traffico causa lavori.
p273
sg4
(lp274
F38.0868018
aF13.311897199999976
asg6
S'1544'
p275
sa(dp276
g2
VVia F. Crispi angolo Via D. Scin&agrave; direzione Foro Italico, causa incidente possibili rallentamenti.
p277
sg4
(lp278
F38.13034989174031
aF13.360396473788455
asg6
S'1546'
p279
sa(dp280
g2
Vvia D. Scin&agrave; tratto compreso tra largo Alfano e Via E. Pais, causa lavori su rete fognaria, chiusura al transito veicolare.
p281
sg4
(lp282
F38.12931963378272
aF13.359525957811002
asg6
S'1547'
p283
sa(dp284
g2
VVia Campolo/Via Serradifalco, incidente stradale. Si prevedono rallentamenti.
p285
sg4
(lp286
F38.128685301049515
aF13.337750523695377
asg6
S'1548'
p287
sa(dp288
g2
VPiazza Montegrappa, incidente stradale. Si prevedono rallentamenti.
p289
sg4
(lp290
F38.1026313
aF13.35224770000002
asg6
S'1549'
p291
sa(dp292
g2
VVia Umberto Maddalena prossimit&agrave; Corso Calatafimi incidente stradale. Possibili rallentamenti.
p293
sg4
(lp294
F38.095393817197774
aF13.30950416242672
asg6
S'1550'
p295
sa(dp296
g2
VPiazza Vittorio Emanuele Orlando 41 incidente stradale. possibili rallentamenti.
p297
sg4
(lp298
I0
aI0
asg6
S'1551'
p299
sa(dp300
g2
VPiazza Molara lavori sede stradale. Possibili rallentamenti.
p301
sg4
(lp302
F38.0818049
aF13.31045169999993
asg6
S'1552'
p303
sa(dp304
g2
VVia Alcide De Gasperi 53 incidente stradale. possibili rallentamenti.
p305
sg4
(lp306
F38.151191367292945
aF13.336807249579579
asg6
S'1553'
p307
sa(dp308
g2
VVia Domenico Scin&agrave; tratto compreso tra largo Alfano e via Ettore Pais chiusura al transito veicolare.
p309
sg4
(lp310
F38.1279693
aF13.358630100000028
asg6
S'1554'
p311
sa(dp312
g2
VVia Molara tratto via Santicelli / piazza Molara chiusa al transito veicolare per lavori stradali. Si consigliano percorsi alternativi.
p313
sg4
(lp314
F38.0829246
aF13.31234059999997
asg6
S'1555'
p315
sa(dp316
g2
VVia Villa Sofia olio su sede stradale. Si consigliano percorsi alternativi
p317
sg4
(lp318
F38.1534626
aF13.335944899999959
asg6
S'1556'
p319
sa(dp320
g2
VVia Gian Lorenzo Bernini 50 incidente stradale. Possibili rallentamenti.
p321
sg4
(lp322
F38.1321027
aF13.327228399999967
asg6
S'1557'
p323
sa(dp324
g2
VVIA ALCIDE DE GASPERI ALTEZZA PIAZZA GIOVANNI PAOLO II INCIDENTE STRADALE PROCEDERE CON PRUDENZA.
p325
sg4
(lp326
F38.15067751136549
aF13.336986609509268
asg6
S'1558'
p327
sa(dp328
g2
VPiazza Europa, 110, causa incidente possibili rallentamenti
p329
sg4
(lp330
F38.1488267
aF13.330226100000004
asg6
S'1559'
p331
sa(dp332
g2
VVia Duca della Verdura altezza Via La Villa, causa incidente possibili rallentamenti
p333
sg4
(lp334
F38.13504989937744
aF13.355182493392931
asg6
S'1560'
p335
sa(dp336
g2
VVia Domenico Scin&agrave; tratto compreso tra Largo Alfano e Via Ettore Pais, causa lavori su rete fognaria, chiusura al transito veicolare.
p337
sg4
(lp338
F38.12931119427415
aF13.359520593392972
asg6
S'1561'
p339
sa(dp340
g2
VVia Mura di San Vito e Piazza San Vito, causa riprese&nbsp;fotografiche, possibili rallentamenti.
p341
sg4
(lp342
F38.11927817799764
aF13.355715920901503
asg6
S'1562'
p343
sa(dp344
g2
VPiazza Bellini, causa riprese&nbsp;fotografiche, possibili rallentamenti.
p345
sg4
(lp346
F38.114862150010744
aF13.362212894442791
asg6
S'1563'
p347
sa(dp348
g2
VViale Regione Siciliana N.O. altezza Via Gaspare da Pesaro e Via delle Madonie, causa lavori su rete fognaria,&nbsp;in attraversamento delle quattro carreggiate, in fasi distinte e non sovrapposte, con chiusura al transito veicolare delle porzioni di carreggiata e marciapiedi interessate dai lavori, prestare attenzioni a possibili rallentamenti, per restringimento carreggiata interessata.
p349
sg4
(lp350
F38.14573238836284
aF13.328907955437899
asg6
S'1564'
p351
sa(dp352
g2
VDalle ore 21,00 avr&agrave; luogo una manifestazione sportiva non agonistica &quot;<strong><em>Selle di Primavera con Palermonotteinbici</em></strong>i&quot; che interesser&agrave; le seguenti Vie e Piazze:Castelnuovo, Dante, Sammartino, C. Nigra, A. Salinas, N. Morello, E. Notarbartolo, M.M. Boiardo, O, Ziino, Malaspina, P.pe di palagonia, G. Borremans, R. Chinnici, A. De Saliba, Reg. Siciliana N.O., Michelangelo, G.L. Bernini, G.B. Tiepolo, Uditore,Chiesa S. Alfonso de Liguori, L.do da Vinci, Reg. Siciliana N.O., G. Pitr&egrave;, Cappuccini, Indipendenza, Re Ruggero, Tukory, G. Arcoleo, S. marino, C. Pisacane, F.P. Perez, V. Errante, Oreto, G. Cesare, Roma, Don Sturzo, G. Bertolino Puglisi, Nasc&egrave;, I. Carini, Archimede, Libert&agrave;, Politeama.&nbsp;
p353
sg4
(lp354
F38.12494894383517
aF13.355294292590315
asg6
S'1565'
p355
sa(dp356
g2
VVia Molara incrocio Via Santicelli, causa lavori rifacimento manto stradale, chiusura al transito.
p357
sg4
(lp358
F38.0810593678275
aF13.307262342822241
asg6
S'1566'
p359
sa(dp360
g2
VPiazza Verdi, causa concentramento e successivo corteo verso Prefettura U.T.G. Via Cavour con presidio, possibili rallentamenti.
p361
sg4
(lp362
F38.121227133444684
aF13.357883652917508
asg6
S'1567'
p363
sa(dp364
g2
VVia Conte Federico altezza civico 264 incidente stradale possibili rallentamenti.
p365
sg4
(lp366
F38.0886403
aF13.396153099999992
asg6
S'1569'
p367
sa(dp368
g2
VVia Leonardo Da Vinci altezza via Mauro De Mauro incidente stradale possibili rallentamenti.
p369
sg4
(lp370
F38.12606555378819
aF13.303393084130903
asg6
S'1570'
p371
sa(dp372
g2
VVia Manin altezza via Corleo incidente stradale possibili rallentamenti.
p373
sg4
(lp374
F38.12994071433738
aF13.353199612689195
asg6
S'1571'
p375
sa(dp376
g2
VVia Dell&#39;olimpo altezza via Panzini lavori sede stradale possibili rallentamenti.
p377
sg4
(lp378
F38.18909984624631
aF13.301194984655694
asg6
S'1572'
p379
sa(dp380
g2
VVia Alessandro Paternostro altezza civico 83 lavori sede stradale possibili rallentamenti.
p381
sg4
(lp382
F38.1167854
aF13.365858000000003
asg6
S'1573'
p383
sa(dp384
g2
VVia Ugo la Malfa altezza via enzo Biagi lavori sede stradale possibili rallentamenti.
p385
sg4
(lp386
F38.156207519840166
aF13.319085431738245
asg6
S'1574'
p387
sa(dp388
g2
VVia Molara lavori sede stradale possibili rallentamenti.
p389
sg4
(lp390
F38.0829246
aF13.31234059999997
asg6
S'1575'
p391
sa(dp392
g2
VVia Monte San Calogero altezza civico 21&nbsp;incidente stradale possibili rallentamenti.
p393
sg4
(lp394
F38.15314827518251
aF13.325966745615005
asg6
S'1576'
p395
sa(dp396
g2
VVia G.B. Caruso incidente stradale possibili rallentamenti.
p397
sg4
(lp398
F38.1229525
aF13.347385199999962
asg6
S'1577'
p399
sa(dp400
g2
VCorso Vittorio Emanuele altezza civico 412 incidente stradale possibili rallentamenti.
p401
sg4
(lp402
F38.114294
aF13.35832270000003
asg6
S'1578'
p403
sa(dp404
g2
VVia Don Orione, 117, causa incidente stradale, possibili rallentamenti.
p405
sg4
(lp406
F38.1401977
aF13.362402699999961
asg6
S'1579'
p407
sa(dp408
g2
VVia Sperone, causa incidente procedere con prudenza.
p409
sg4
(lp410
F38.0994696
aF13.398774499999945
asg6
S'1580'
p411
sa(dp412
g2
VVia Galletti, causa incidente, procedere con prudenza possibili rallentamenti. Infortunistica sul posto.
p413
sg4
(lp414
F38.0884
aF13.432800000000043
asg6
S'1581'
p415
sa(dp416
g2
VVia Francesco Crispi, causa incidente procedere con prudenza. Pattuglia P.M. sul posto.
p417
sg4
(lp418
F38.1310028228275
aF13.360251798286527
asg6
S'1582'
p419
sa(dp420
g2
VVia Cala, direzione Palermo, causa incidente procedere con prudenza.
p421
sg4
(lp422
F38.118938740568026
aF13.368458454492156
asg6
S'1583'
p423
sa(dp424
g2
VVia Messina Marine 91, causa incidente procedere con prudenza.
p425
sg4
(lp426
F38.10788477335391
aF13.381586372852325
asg6
S'1584'
p427
sa(dp428
g2
VChiusura al transito veicolare di Via Domenico Scin&agrave; tratto compreso tra largo Alfano e via Ettore Pais,&nbsp;per lavori su rete fognaria, possibil&ograve;i rallentamenti.
p429
sg4
(lp430
F38.1291309
aF13.36006539999994
asg6
S'1585'
p431
sa(dp432
g2
VChiusura di Via Maqueda da Piazza Verdi a Piazza Villena per Z.T.L. dalle ore 10.00 alle ore 07.00 del giorno&nbsp;03/04/2017.
p433
sg4
(lp434
F38.12119084915927
aF13.357920826428199
asg6
S'1586'
p435
sa(dp436
g2
VLimitazione della circolazione veicolare per lavori urgenti ENEL &nbsp;in Via&nbsp;Schillaci &nbsp;civ.11, possibili rallentamenti.
p437
sg4
(lp438
F38.1991833
aF13.282863499999962
asg6
S'1587'
p439
sa(dp440
g2
VVia della Libert&agrave; - Via Archimede incidente stradale procedere con prudenza possibili rallentamenti.
p441
sg4
(lp442
F38.128284620679295
aF13.353528454899788
asg6
S'1588'
p443
sa(dp444
g2
VOre 10 Piazza Lennon raduno per svolgimento manifestazione Moto Tour.
p445
sg4
(lp446
F38.1308695
aF13.33388089999994
asg6
S'1589'
p447
sa(dp448
g2
VDalle ore 8 salle ore 20 chiusura via Liberta&#39; carreggiata centrale tratto Piazza Mordini Piazza Castelnuovo
p449
sg4
(lp450
F38.1251029
aF13.356651199999988
asg6
S'1590'
p451
sa(dp452
g2
VPiazza Boiardo dalle ore 9 alle ore 20 chiusura di parte della piazza per consentire raccolta fondi per la Leucemia.
p453
sg4
(lp454
F38.13254
aF13.342470000000048
asg6
S'1591'
p455
sa(dp456
g2
VPiazza Sacro Cuore incidente stradale possibili rallentamenti procedere con prudenza
p457
sg4
(lp458
F38.1183247
aF13.342662799999971
asg6
S'1592'
p459
sa(dp460
g2
VVia Riserva Reale dalle ore 9 alle ore 13 visita guidata alla Sorgente del Gabriele
p461
sg4
(lp462
F38.1036326
aF13.317813699999988
asg6
S'1593'
p463
sa(dp464
g2
VPiazza Don Bosco incidente stradale possibili rallentamenti procedere con prudenza.
p465
sg4
(lp466
F38.12374765230849
aF13.342340290546417
asg6
S'1594'
p467
sa(dp468
g2
VDalle ore 12.00 si ricorda la chiusura del perimetro attorno lo stadio comunale Renzo Barbera in occasione dell&#39;incontro di calcio valevole per il campionato di serie A tra Palermo-Cagliari che avra&#39; inizio alle ore &nbsp;15.00
p469
sg4
(lp470
F38.1553006
aF13.338810899999999
asg6
S'1595'
p471
sa(dp472
g2
VVia Tommaso Gargallo civ.29, incidente stradale procedere con prudenza possibili rallentamenti.
p473
sg4
(lp474
F38.1382641
aF13.348365999999942
asg6
S'1596'
p475
sa(dp476
g2
VVia Principe di Palagonia civ 167,incidente stradale procedere con prudenza possibili rallentamenti.
p477
sg4
(lp478
F38.1363005
aF13.335461099999975
asg6
S'1597'
p479
sa(dp480
g2
VVia U.La Malfa, tra l&#39;intersezione con la Via Enzo Biagi e il civ. 70 - Lavori TELECOM con scavo e ripristino pavimentazione per circa mt.4.
p481
sg4
(lp482
F38.15640999312168
aF13.319128347082483
asg6
S'1598'
p483
sa(dp484
g2
VCerimonia di riapertura Agenzia Consolare U.S. di Via Vaccarini, 1 con presenza di autorit&agrave;.
p485
sg4
(lp486
F38.1409438
aF13.348341800000071
asg6
S'1599'
p487
sa(dp488
g2
VChiusura al transito veicolare in Via D. Scin&agrave; - tratto compreso tra Largo Alfano e Via Ettore Pais.
p489
sg4
(lp490
F38.12928703113623
aF13.359518229360901
asg6
S'1600'
p491
sa(dp492
g2
VVia Schillaci, 11 - Lavori in corso - possibili rallentamenti.
p493
sg4
(lp494
F38.1958765
aF13.279884700000025
asg6
S'1601'
p495
sa(dp496
g2
VLavori di scavo urgenti in C.so Calatafimi, 89 causa guasto cavo telefonico - Possibili rallentamenti.
p497
sg4
(lp498
F38.11093638430849
aF13.349597084655784
asg6
S'1602'
p499
sa(dp500
g2
VLavori di scavo urgenti TELECOM, in Piazza Dei Leoni, 78 causa guasto cavo telefonico - possibili rallentamenti.
p501
sg4
(lp502
F38.14529070270442
aF13.345736957672102
asg6
S'1603'
p503
sa(dp504
g2
VLavori di scavo urgenti TELECOM, in Via Altarello, 56, causa guasto cavo telefonico - possibili rallentamenti.
p505
sg4
(lp506
F38.10986279999999
aF13.32382050000001
asg6
S'1604'
p507
sa(dp508
g2
VLavori di scavo urgenti TELECOM in Piazza Dei Leoni, 52, causa guasto cavo telefonico - possibili rallentamenti.
p509
sg4
(lp510
F38.1463164
aF13.344494899999972
asg6
S'1605'
p511
sa(dp512
g2
VLavori di scavo urgenti TELECOM, in Via Nicol&ograve; Spedalieri, 19, causa guasto cavo telefonico - possibili rallentamenti.
p513
sg4
(lp514
F38.1384281
aF13.359795599999984
asg6
S'1606'
p515
sa(dp516
g2
VLavori di scavo urgenti TELECOM in Via Nairobi, 5 causa guasto cavo telefonico - possibili rallentamenti.
p517
sg4
(lp518
F38.1079921
aF13.346361900000034
asg6
S'1607'
p519
sa(dp520
g2
VChiusura Totale/Parziale al transito per lavori AMAP, causa nuovo allaccio fognario in Via Bozzo Stefano Vittorio ang. Via Gangi - possibili rallentamenti.
p521
sg4
(lp522
F38.0793232
aF13.403561399999944
asg6
S'1608'
p523
sa(dp524
g2
VChiusura al transito veicolare della Via Ugo La Malfa, causa allagamento causato da avverse condizioni meteo - possibili disagi alla circolazione.
p525
sg4
(lp526
F38.1622693
aF13.314353399999959
asg6
S'1609'
p527
sa(dp528
g2
VVia Dante altezza via Spataro incidente stradale possibili rallentamenti.
p529
sg4
(lp530
F38.12284277674319
aF13.346923860049401
asg6
S'1610'
p531
sa(dp532
g2
VCorso Calatafimi altezza &nbsp;civ.n&deg;536 incidente stradale procedere con prudenza.
p533
sg4
(lp534
F38.1011467
aF13.325808700000039
asg6
S'1611'
p535
sa(dp536
g2
VVia Schillaci altezza civico 11 lavori sede stradale possibili rallentamenti.
p537
sg4
(lp538
F38.1991833
aF13.282863499999962
asg6
S'1612'
p539
sa(dp540
g2
VVia Bozzo Stefano Vittorio altezza via Ganci &nbsp;lavori sede stradale possibili rallentamenti.
p541
sg4
(lp542
F38.0793232
aF13.403561399999944
asg6
S'1613'
p543
sa(dp544
g2
VViale Regione Siciliana altezza via Delle Madonie lavori sede stradale possibili rallentamenti.
p545
sg4
(lp546
F38.1468956
aF13.331157200000007
asg6
S'1614'
p547
sa(dp548
g2
VVia Isidoro La Lumia altezza via Mazzini lavori sede stradale possibili rallentamenti.
p549
sg4
(lp550
F38.12772011463227
aF13.355703595770251
asg6
S'1615'
p551
sa(dp552
g2
VViale Michelangelo altezza via Bernini incidente stradale possibili rallentamenti.
p553
sg4
(lp554
F38.1375562236066
aF13.321575125903337
asg6
S'1616'
p555
sa(dp556
g2
VVia Stazzone altezza via Oreto incidente stradale possibili rallentamenti.
p557
sg4
(lp558
F38.102814801589325
aF13.369762478295911
asg6
S'1617'
p559
sa(dp560
g2
VPiazza Della Pace altezza istituto penitenziario incidente stradale possibili rallentamenti.
p561
sg4
(lp562
F38.131766576700805
aF13.359044804229825
asg6
S'1618'
p563
sa(dp564
g2
VVia Ugo La Malfa riapertura al transito veicolare.
p565
sg4
(lp566
F38.1622693
aF13.314353399999959
asg6
S'1619'
p567
sa(dp568
g2
VVia Santuario Cruillas angolo F.do Di Maggio, causa lavori su rete fognaria possibili rallentamenti.
p569
sg4
(lp570
F38.14225767643104
aF13.32374611904902
asg6
S'1620'
p571
sa(dp572
g2
VVia Schillaci, 11, causa lavori su rete elettrica, possibili rallentamenti.
p573
sg4
(lp574
F38.1991833
aF13.282863499999962
asg6
S'1621'
p575
sa(dp576
g2
VViale Strasburgo, 251, causa lavori su rete elettrica, possibili rallentamenti
p577
sg4
(lp578
F38.1590014
aF13.324445200000014
asg6
S'1622'
p579
sa(dp580
g2
VVai F. Crispi, 258, causa lavori su rete fognaria, chiusura totale carreggiata interessata, con possibili rallentamenti.
p581
sg4
(lp582
F38.1295949
aF13.360690699999964
asg6
S'1623'
p583
sa(dp584
g2
VVia Santa Maria diges&ugrave; altezza civ. 80/A, causa lavori su rete fognaria, chiusura al transito, con possibili rallentamenti.
p585
sg4
(lp586
F38.0934234
aF13.37183349999998
asg6
S'1624'
p587
sa(dp588
g2
VVia Messina Marine, 471, causa lavori su rete telefonica, possibili rallentamenti.
p589
sg4
(lp590
F38.0982648
aF13.40878650000002
asg6
S'1625'
p591
sa(dp592
g2
VVia Titina De Filippo, 40, causa lavori su rete telefonica, possibili rallentamenti
p593
sg4
(lp594
F38.1023989
aF13.327106299999969
asg6
S'1626'
p595
sa(dp596
g2
VVia Santa Margherita Pietratagliata, 59, causa lavori su rete telefonica, possibili rallentamenti
p597
sg4
(lp598
F38.1019199
aF13.321057600000017
asg6
S'1627'
p599
sa(dp600
g2
VVia Santa Margherita Pietratagliata, 20, causa lavori su rete telefonica, possibili rallentamenti
p601
sg4
(lp602
F38.10204390000001
aF13.321064999999976
asg6
S'1628'
p603
sa(dp604
g2
VPiazzale Fratelli S. Anna, 14, causa lavori su rete telefonica, possibili rallentamenti
p605
sg4
(lp606
F38.1044516
aF13.386562499999968
asg6
S'1629'
p607
sa(dp608
g2
VCorso dei Mille, 1293, causa lavori su rete fognaria, possibili rallentamenti
p609
sg4
(lp610
F38.0922088
aF13.410564799999975
asg6
S'1630'
p611
sa(dp612
g2
VCorso dei Mille, 1293, causa lavori su rete fognaria, possibili rallentamenti
p613
sg4
(lp614
F38.0922088
aF13.410564799999975
asg6
S'1631'
p615
sa(dp616
g2
VVia F. Baracca, 37/B, causa lavori su rete fognaria, possibili rallentamenti.
p617
sg4
(lp618
F38.1109997
aF13.299026499999968
asg6
S'1632'
p619
sa(dp620
g2
VVia Oreto altezza via Dell&#39; orsa Minore sostanza viscida su sede stradale procedere con prudenza.
p621
sg4
(lp622
F38.09718376692761
aF13.373506159863155
asg6
S'1633'
p623
sa(dp624
g2
VVia Villa Florio altezza via Vito&nbsp;la Mantia incidente stradale possibili rallentamenti.
p625
sg4
(lp626
F38.12065110907822
aF13.346453520237674
asg6
S'1634'
p627
sa(dp628
g2
VViale Diana altezza Casa Natura incidente stradale possibili rallentamenti.
p629
sg4
(lp630
F38.16382397348344
aF13.340812060790995
asg6
S'1635'
p631
sa(dp632
g2
VVia Francesco Baracca altezza civico 37 lavori sede stradale possibili rallentamenti.
p633
sg4
(lp634
F38.1109997
aF13.299026499999968
asg6
S'1636'
p635
sa(dp636
g2
VCorso Dei Mille altezza civico 1293 lavori sede stradale possibili rallentamenti.
p637
sg4
(lp638
F38.0922088
aF13.410564799999975
asg6
S'1637'
p639
sa(dp640
g2
VVia Roma altezza via Cavour incidente stradale possibili rallentamenti.
p641
sg4
(lp642
F38.121919254306896
aF13.360876723278807
asg6
S'1638'
p643
sa(dp644
g2
VVia Ferrara altezza via De Spuches incidente stradale possibili rallentamenti.
p645
sg4
(lp646
F38.1253251
aF13.350749899999983
asg6
S'1639'
p647
sa(dp648
g2
VVia Gioeni altezza via Fastuca lavori sede stradale possibili rallentamenti.
p649
sg4
(lp650
F38.1152737
aF13.35478050000006
asg6
S'1640'
p651
sa(dp652
g2
VVia Salice altezza via Collegio Romano lavori sede stradale possibili rallentamenti.
p653
sg4
(lp654
F38.12833069999999
aF13.324355353442343
asg6
S'1641'
p655
sa(dp656
g2
VVia Alcide De Gasperi intersezione Via Empedocle Restivo, causa incidente, possibili rallentamenti. Attenzione a personale su strada.
p657
sg4
(lp658
F38.14910441720403
aF13.333029454492134
asg6
S'1644'
p659
sa(dp660
g2
VVia Regione Siciliana intersezione Via Nazario Sauro, causa incidente, possibili rallentamenti. Attenzione a personale su strada.
p661
sg4
(lp662
F38.125772705605996
aF13.329703916919016
asg6
S'1645'
p663
sa(dp664
g2
VViale Strasburgo altezza via Alcide de Gasperi possibili rallentamenti al flusso veicolare causa sinistro stradale.
p665
sg4
(lp666
F38.1491756825961
aF13.333370989379773
asg6
S'1646'
p667
sa(dp668
g2
VViale Strasburgo altezza Via Alcide de Gasperi flusso veicolare regolare.
p669
sg4
(lp670
F38.149133127409335
aF13.333039814606309
asg6
S'1647'
p671
sa(dp672
g2
VCorso dei Mille &nbsp;nr. 1293/1295 &nbsp;previsti lavori di scavo su sede stradali. Possibili rallentamenti al flusso veicolare.
p673
sg4
(lp674
F38.0922088
aF13.410564799999975
asg6
S'1648'
p675
sa(dp676
g2
VPiazza A. Vanni, dalle ore 07 odierne e fino alle ore 24 del 18 c.m. occupazione suolo pubblico per il posizionamento di un palco in occawsione festeggiamenti settimana santa.
p677
sg4
(lp678
F38.1100334
aF13.356401499999947
asg6
S'1649'
p679
sa(dp680
g2
VPiazza A. Vanni, dalle ore 07 odierne e fino alle ore 24 del 18 c.m. occupazione suolo pubblico per il posizionamento di un palco in occasione festeggiamenti settimana santa.
p681
sg4
(lp682
F38.1100334
aF13.356401499999947
asg6
S'1650'
p683
sa(dp684
g2
VVia&nbsp;Cavour, sede Prefettura U.T.G., causa presidio dipendenti KSM, possibili rallentamenti e/o blocchi improvvisi.
p685
sg4
(lp686
F38.122387692985384
aF13.3622982940567
asg6
S'1651'
p687
sa(dp688
g2
VVia E. Basile, ingresso Parco Cassar&agrave;, causa manifestazione, dalle ore 11.00, possibili rallentamenti
p689
sg4
(lp690
F38.095751142936486
aF13.342021050756784
asg6
S'1652'
p691
sa(dp692
g2
VVia Maqueda altezza sede Presidenza Scuola Scienze Giuridiche, alle ore 10.30 in occasione della cerimonia &quot;Graduation Day&quot;, muover&agrave; un breve corteo che attraversoVia Maqueda, Via Vittorio Emanuele, Via Roma e Via Discesa dei Giudici, giunger&agrave; in Piazza Bellini dove avr&agrave; luogo la cerimonia.&nbsp;
p693
sg4
(lp694
F38.11476738584776
aF13.361997784130835
asg6
S'1653'
p695
sa(dp696
g2
VVia Iside, 33, causa lavori di scavo su rete elettrica, possibili rallentamenti.
p697
sg4
(lp698
F38.19518559999999
aF13.323021299999937
asg6
S'1654'
p699
sa(dp700
g2
VVia Pindaro, 19, causa lavori di scavo su rete elettrica, possibili rallentamenti
p701
sg4
(lp702
F38.2079155
aF13.32279619999997
asg6
S'1655'
p703
sa(dp704
g2
VCorso dei Mille, 1293, causa lavori di scavo su rete fognaria, possibili ralklentamenti.
p705
sg4
(lp706
F38.0922088
aF13.410564799999975
asg6
S'1656'
p707
sa(dp708
g2
VVia Gioeni angolo Via Fastuca, causa lavori di scavo su rete fognaria, possibili rallentamenti.
p709
sg4
(lp710
F38.115137451055126
aF13.355092340475494
asg6
S'1657'
p711
sa(dp712
g2
VVia Domenico Scin&agrave; tratto compreso tra Largo Alfano e Via Ettore Pais, causa lavori su rete fognaria, chiusura al transito veicolare.
p713
sg4
(lp714
F38.12930275476459
aF13.359520593392972
asg6
S'1658'
p715
sa(dp716
g2
VVIA TOMMASO GARGALLO - VIA MARCHESE DI VILLABIANCA INCIDENTE STRADALE. POSSIBILI RALLENTAMENTI.
p717
sg4
(lp718
F38.138739252914625
aF13.349230005032382
asg6
S'1659'
p719
sa(dp720
g2
VVIA DELL&#39;ARTIGLIERE/VIA DEL BERSAGLIERE SINISTRO STRADALE,POSSIBILI RALLENTAMENTI,PROCEDERE CON PRUDENZA.
p721
sg4
(lp722
F38.14628616212477
aF13.343193373016334
asg6
S'1660'
p723
sa(dp724
g2
VVIA GIOENI / VIA FASTUCA CHIUSURA PARZIALE DELLA SEDE STRADALE &nbsp;PER LAVORI ALLA RETE FOGNARIA,PROCEDERE CON PRUDENZA.
p725
sg4
(lp726
F38.115150112775325
aF13.355086976057464
asg6
S'1661'
p727
sa(dp728
g2
VPiazza Castelnuovo incidente stradale procedere con prudenza
p729
sg4
(lp730
F38.1248467
aF13.35494319999998
asg6
S'1662'
p731
sa(dp732
g2
VVia Noto/Via La Farina incidente stradale procedere con prudenza
p733
sg4
(lp734
F38.1286692
aF13.34890089999999
asg6
S'1663'
p735
sa(dp736
g2
VVia Albiri pressi rotonda Oreto incidente stradale. Possibili rallentamenti.
p737
sg4
(lp738
F38.08984969999999
aF13.362299399999984
asg6
S'1664'
p739
sa(dp740
g2
VVia C. Camilliani ang. via Pozzo. Chiusura al transito veicolare per lavori urgenti.
p741
sg4
(lp742
F38.1296615
aF13.324365400000033
asg6
S'1665'
p743
sa(dp744
g2
VPiazza Verdi ore 10.30 manifestazione celebrativa del 165&deg; anniversario della fondazione della Polizia di Stato.
p745
sg4
(lp746
F38.1206363
aF13.356896600000027
asg6
S'1666'
p747
sa(dp748
g2
VPiazzale Einstein dir. CT lato monte incidente stradale, possibili rallentamenti.
p749
sg4
(lp750
F38.12864907720923
aF13.328487356884807
asg6
S'1667'
p751
sa(dp752
g2
VVia Tranchina altezza via Salvatore Minutilla limitazione temporanea della circolazione per lavori di scavo.
p753
sg4
(lp754
F38.1620631
aF13.313837299999932
asg6
S'1668'
p755
sa(dp756
g2
VVia D. Scina- via F. Crispi incidente stradale, possibili rallentamenti
p757
sg4
(lp758
F38.1279693
aF13.358630100000028
asg6
S'1669'
p759
sa(dp760
g2
VVia Ugo La Malfa 86, limitazione della circolazione veicolare e pedonale per lavori di scavo.
p761
sg4
(lp762
F38.1624563
aF13.314030199999934
asg6
S'1670'
p763
sa(dp764
g2
VVia Belgio- via dei Nebrodi dir. viale Strasburgo incidente stradale, possibili rallentamenti. Si consigliano percorsi alternativi.
p765
sg4
(lp766
F38.1503292
aF13.329011400000013
asg6
S'1671'
p767
sa(dp768
g2
VVia Montalbo 1 incidente stradale. Possibili rallentamenti
p769
sg4
(lp770
F38.1372505
aF13.358749799999941
asg6
S'1672'
p771
sa(dp772
g2
VVia Ernesto Basile 108 incidente stradale; procedere con prudenza; possibili rallentamenti.
p773
sg4
(lp774
F38.1048558
aF13.351187299999992
asg6
S'1673'
p775
sa(dp776
g2
VForo Umberto I altezza piazza S Erasmo incidente stradale procedere con prudenza.
p777
sg4
(lp778
F38.11312868186739
aF13.377896400524833
asg6
S'1674'
p779
sa(dp780
g2
VVia San Martino dal civ. 294 al civ. 298 causa lavori AMAP possibili rallentamenti
p781
sg4
(lp782
F38.1051644
aF13.298021999999946
asg6
S'1675'
p783
sa(dp784
g2
VVia Camillo Camilliani angolo via Pozzo causa lavori AMAP possibili rallentamenti procedere con prudenza
p785
sg4
(lp786
F38.128983174563054
aF13.3245933877663
asg6
S'1676'
p787
sa(dp788
g2
VVia Regione Siciliana tratto Rotonda Oreto Piazzale Kennedy&nbsp;interessata da lavori su sede viaria possibili rallentamenti&nbsp;
p789
sg4
(lp790
F38.119421928562375
aF13.328888893115163
asg6
S'1677'
p791
sa(dp792
g2
VVia Lazio angolo via Piemonte causa lavori TIM possibili rallentamenti
p793
sg4
(lp794
F38.14287700000001
aF13.340137599999935
asg6
S'1678'
p795
sa(dp796
g2
VPIazzetta dei Bianchi causa la vori ENEL possibili rallentamenti
p797
sg4
(lp798
F38.11590588328088
aF13.37137158650819
asg6
S'1679'
p799
sa(dp800
g2
VVia Santuario Maria di Cruillas causa lavori Enel possibili rallentamenti
p801
sg4
(lp802
F38.1389857360457
aF13.328939646557615
asg6
S'1680'
p803
sa(dp804
g2
VVia Regione Siciliana direzione Catania in entrambe le corsie causa lavori su sede stradale intenso traffico
p805
sg4
(lp806
F38.118636943678844
aF13.32873868941033
asg6
S'1681'
p807
sa(dp808
g2
VVia Crispi altezza via E. Amari incidente stradale possibili rallentamenti procedere con prudenza
p809
sg4
(lp810
F38.126875265771965
aF13.362612533868287
asg6
S'1682'
p811
sa(dp812
g2
VVia Messina Marine angolo via Gen Corselli incidente stradale possibili rallentamenti procedere con prudenza
p813
sg4
(lp814
F38.0964825
aF13.397639400000003
asg6
S'1683'
p815
sa(dp816
g2
VVia San Martino altezza civico 244 lavori sede stradale possibili rallentamenti.
p817
sg4
(lp818
F38.1058255
aF13.303006399999958
asg6
S'1684'
p819
sa(dp820
g2
VVia Camillo Camilliani angolo via Pozzo lavori sede stradale possibili rallentamenti.
p821
sg4
(lp822
F38.1290532
aF13.322454900000025
asg6
S'1685'
p823
sa(dp824
g2
VVia Giusti altezza piazza Unit&agrave; D&#39;Italia incidente stradale possibili rallentamenti.
p825
sg4
(lp826
F38.13714710671353
aF13.343991723278805
asg6
S'1686'
p827
sa(dp828
g2
VViale Regione Siciliana corsia centrale direzione Catania tratto compreso tra Via Perpignano e Via Pitre&#39; Lavori di scarifica.Si prevedono rallentamenti
p829
sg4
(lp830
F38.11813104246673
aF13.328852131962776
asg6
S'1687'
p831
sa(dp832
g2
VVia Maggiore Toselli incrocio con Via Duca Della Verdura sinistro stradale.Procedere con prudenza
p833
sg4
(lp834
F38.13582873052783
aF13.354699909687042
asg6
S'1688'
p835
sa(dp836
g2
VVia Ugo La Malfa alt.civ.144 sinistro stradale-Procedere con prudenza
p837
sg4
(lp838
F38.1622693
aF13.314353399999959
asg6
S'1689'
p839
sa(dp840
g2
VViale Regione Siciliana Direzione CT sulla rampa di accesso alla Via Ernesto Basile sinistro stradale.Possibili rallentamenti.Procedere con prudenza
p841
sg4
(lp842
F38.09285112586795
aF13.338954145044
asg6
S'1690'
p843
sa(dp844
g2
VRoma alt.Via Emerico Amari .Sinistro stradale.Possibili rallentamenti
p845
sg4
(lp846
F38.119816545567474
aF13.3591228723526
asg6
S'1691'
p847
sa(dp848
g2
VPiazza Don Sturzo sinistro stradale.Procedere con prudenza
p849
sg4
(lp850
F38.1263574
aF13.35776659999999
asg6
S'1692'
p851
sa(dp852
g2
VPiazza Indipendenza Chiusura al transito veicolare x presenza di Manifestanti.
p853
sg4
(lp854
F38.1118270743105
aF13.349257707595825
asg6
S'1693'
p855
sa(dp856
g2
VVia Cavarretta 23, causa incidente procedere con prudenza.
p857
sg4
(lp858
F38.1978014
aF13.317279600000006
asg6
S'1694'
p859
sa(dp860
g2
VVia Francesco Crispi 256, causa incidente procedere con prudenza.
p861
sg4
(lp862
F38.1296362
aF13.360863600000016
asg6
S'1695'
p863
sa(dp864
g2
VLargo Ispica 9, causa incidente procedere con prudenza.
p865
sg4
(lp866
F38.13029909999999
aF13.295042599999988
asg6
S'1696'
p867
sa(dp868
g2
VVia Camillo Camilliani angolo Via Pozzo, causa lavori su rete fognaria, possibili rallentamenti.
p869
sg4
(lp870
F38.1289863393931
aF13.324590705557284
asg6
S'1697'
p871
sa(dp872
g2
VVia P. Ruzzolone, 8, causa lavori di scavo su rete fognaria, possibili rallentamenti
p873
sg4
(lp874
F38.1380579
aF13.33905470000002
asg6
S'1698'
p875
sa(dp876
g2
VVia A. Niceforo, causa lavori di scavo su rete fognaria, possibili rallentamenti.
p877
sg4
(lp878
F38.19561849999999
aF13.319984100000056
asg6
S'1699'
p879
sa(dp880
g2
VVia San Martino tratto compreso tra i civv. 244 e 298, causa lavori di scavo su rete idrica, chiusura al transito.
p881
sg4
(lp882
F38.1058255
aF13.303006399999958
asg6
S'1700'
p883
sa(dp884
g2
VVia Santuario di Cruillas, causa lavori su rete elettrica, possibili rallentamenti
p885
sg4
(lp886
F38.1382094
aF13.329368799999997
asg6
S'1701'
p887
sa(dp888
g2
VVia F. Crispi, 21, causa lavori su rete fognaria, possibili rallentamenti.
p889
sg4
(lp890
F38.1213317
aF13.366054599999984
asg6
S'1702'
p891
sa(dp892
g2
VLargo Leone XIII (all&#39;Arenella), caus alavori su rete fognaria, possibili rallentamenti
p893
sg4
(lp894
F38.15237070566728
aF13.372009629383683
asg6
S'1703'
p895
sa(dp896
g2
VVia Giovanni Maurigi, 70, causa lavori su rete fognaria, possibili rallentamenti
p897
sg4
(lp898
F38.1189481
aF13.344020699999987
asg6
S'1704'
p899
sa(dp900
g2
VPer oggi e fino alle ore 08.00 di Marted&igrave; p.v., sospensione momentanea Z.T.L.
p901
sg4
(lp902
I0
aI0
asg6
S'1705'
p903
sa(dp904
g2
VPiazza A. Vanni e Via G.le Cadorna, causa manifestazione in occasione Gioved&igrave; Santo, chiusura al transito.
p905
sg4
(lp906
F38.1172496
aF13.359047499999974
asg6
S'1706'
p907
sa(dp908
g2
VBuongiorno dalla sala operativa della Polizia Municipale di Palermo
p909
sg4
(lp910
F38.12488949999999
aF13.313359699999978
asg6
S'1707'
p911
sa(dp912
g2
VIn ottemperanza Ordinanza 543 del 12/04/17 sospensione momentanea della Z.T.L. fino alle ore 08.00 di martedi 18/04/17
p913
sg4
(lp914
I0
aI0
asg6
S'1708'
p915
sa(dp916
g2
VPiazza Unit&agrave; D&#39; italia area centrale chiusa al transito veicolare per manifestazione
p917
sg4
(lp918
F38.1378897
aF13.344206299999996
asg6
S'1709'
p919
sa(dp920
g2
VPiazza A.Vanni e via Gen. Cadorna dalle ore 12.00 causa manifestazione religiosa &nbsp;chiusa al transito veicolare.
p921
sg4
(lp922
F38.1100334
aF13.356401499999947
asg6
S'1710'
p923
sa(dp924
g2
VIn occasione del Venerdi Santo, a partire dalle ore 13.00 circa e fino a notte inoltrata avranno luogo diverse processioni su tutto il territorio comunale, in particolare riferimento al centro storico.
p925
sg4
(lp926
I0
aI0
asg6
S'1711'
p927
sa(dp928
g2
VViale Reg. Siciliana &nbsp;carreggiata centrale dir. TP altezza Carcere Pagliarelli incidente stradale. Possibili rallentamenti.
p929
sg4
(lp930
F38.093425296761126
aF13.339898282617241
asg6
S'1712'
p931
sa(dp932
g2
VPiazzetta della Canna tratto stradale tra via San biagio e Cortile della Canna chiusa al transito veicolare dalle ore 19.00 alle ore 24.00 per manifestazione &quot; Festa di primavera &quot;
p933
sg4
(lp934
F38.115697
aF13.358931999999982
asg6
S'1713'
p935
sa(dp936
g2
VVia G. Maurigi&nbsp;70 causa lavori di scavo possibili rallentamenti
p937
sg4
(lp938
F38.1189481
aF13.344020699999987
asg6
S'1714'
p939
sa(dp940
g2
Vvia Notarbartolo/p.zza M.M.Boiardo, sinistro stradale - procedere con prudenza - nostre pattuglie sul posto
p941
sg4
(lp942
F38.131991137024
aF13.342697074343732
asg6
S'1715'
p943
sa(dp944
g2
VLasvori di ampliamento e realizzazione della rete fognaria nelle via Mango ed Atenasio. Chiusura parziale del Viale della Regione Siciliana N.O.
p945
sg4
(lp946
F38.149121
aF13.322438499999976
asg6
S'1716'
p947
sa(dp948
g2
VIncontro di calcio Palermo-Bologna, chiusura al transito veicolare delle&nbsp;strade adiacenti allo stadio.
p949
sg4
(lp950
F38.1483818
aF13.34227809999993
asg6
S'1717'
p951
sa(dp952
g2
VManifestazione religiosa a Sferracavallo, con partenza da via Terenzio, proseguendo per via Proserpina e le vie limitrofe secondo il senso di marcia. Dalle ore 10.00 fino alle ore 13.00 circa.
p953
sg4
(lp954
F38.1977308
aF13.278279800000064
asg6
S'1718'
p955
sa(dp956
g2
VManifestazione agroalimentare: Agrimercato regionale &quot; Mercato del Contadino&quot; presso villa Sperlinga.
p957
sg4
(lp958
F38.1212547
aF13.35663820000002
asg6
S'1719'
p959
sa(dp960
g2
VManifestazione religiosa in via Oreste, possibili rallentamenti veicolari nelle aree adiacenti, dalle ore 10.00 sino alle ore 15.00 circa.
p961
sg4
(lp962
F38.2019756
aF13.307917599999996
asg6
S'1720'
p963
sa(dp964
g2
VChiusura temporanea dalle 17.00 alle ore 19.00 della carreggiata antistante la chiesa di San Francesco Di Paola. In occasione di evento religioso.
p965
sg4
(lp966
F38.1215189
aF13.352716299999997
asg6
S'1721'
p967
sa(dp968
g2
VManifestazione cicloturistica lungo l&#39;itinerario UNESCO &quot;II^ Randone&egrave; di Palermo&quot; - Presenza, altres&igrave;, di gazebo su Piazza Verdi.
p969
sg4
(lp970
F38.1206363
aF13.356896600000027
asg6
S'1722'
p971
sa(dp972
g2
VIncidente stradale in via Manin civ.8, procedere con prudenza.
p973
sg4
(lp974
F38.1304302
aF13.354422699999986
asg6
S'1723'
p975
sa(dp976
g2
VLa&nbsp;centrale operativa della Polizia Municipale Vi augura il buongiorno e una Buona&nbsp;Pasqua
p977
sg4
(lp978
F38.12487369999999
aF13.313361200000031
asg6
S'1724'
p979
sa(dp980
g2
VManifestazione ciclistica &quot; 1^ Coppa Pasqua 2017 &quot;. Saranno chiuse al transito veicolare le seguenti vie: via Diomede, via Mercurio, via Niso, via Tolomea, via Eurialo, via Ippodamia, via Apollo e via Catalano a sx direzione via Apollo.
p981
sg4
(lp982
F38.203494
aF13.316786900000011
asg6
S'1725'
p983
sa(dp984
g2
VVia della Libert&agrave; chiusa al transito veicolare dalle ore 08.00 all ore 20.00
p985
sg4
(lp986
F38.1305672
aF13.352276200000006
asg6
S'1729'
p987
sa(dp988
g2
VPiazza Verdi per il 18.04.17 prevista la 101 ^ edizione della Targa Florio &quot;Rally Internazionale di Sicilia&quot;&nbsp;Diverse le vie interessate alla manifestazione. Continua
p989
sg4
(lp990
F38.1206363
aF13.356896600000027
asg6
S'1730'
p991
sa(dp992
g2
VSegue..................Vie interessate alla manifestazione ( sempre con riferimento alla Targa Florio ) oltre a Piazza Verdi, Via Scarlatti,Via Favara,Via Donizetti, Via Maqueda tratto Piazza Verdi/Piazza Villena/Piazza S.Antonino.
p993
sg4
(lp994
F38.1206363
aF13.356896600000027
asg6
S'1731'
p995
sa(dp996
g2
VSempre con riferimento alla manifestazione &nbsp;denominata Targa Florio Rally Internazionale di Sicilia &egrave;&nbsp;interessata&nbsp;anche la Via Patti intero tratto stradale.&nbsp;Per il 23.04.17 dalle ore 12.30 alle ore 14.00 i veicoli partecipanti rientreranno a Palermo &nbsp;e,seguiranno il seguente percorso: Rotatoria Via Belgio, Viale Strasburgo,Via A. De Gasperi,Via Croce Rossa,Piazza V.Veneto, Via della Libert&agrave;, Via Ruggero Settimo,Via Maqueda.
p997
sg4
(lp998
F38.12045652650586
aF13.358414352886939
asg6
S'1732'
p999
sa(dp1000
g2
VVia Ugo La Malfa/Via Pietro Nenni possibili rallentamenti al flusso veicolare causa sinistro stradale.
p1001
sg4
(lp1002
F38.157646391423356
aF13.317872458227384
asg6
S'1733'
p1003
sa(dp1004
g2
VVia Ugo La Malfa / Via Pietro Nenni flusso veicolare regolare.
p1005
sg4
(lp1006
F38.156346695026635
aF13.318900005032447
asg6
S'1734'
p1007
sa(dp1008
g2
VViale Regione Siciliana corsia laterale direzione Catania altezza via O. Mandal&agrave; incidente stradale possibili rallentamenti.&nbsp;
p1009
sg4
(lp1010
F38.144538874289445
aF13.329837792065405
asg6
S'1735'
p1011
sa(dp1012
g2
VSostanze viscide sulla sede stradale in Via Roma- Via Spinuzza procedere con prudenza.
p1013
sg4
(lp1014
F38.12163025929576
aF13.360974664032028
asg6
S'1736'
p1015
sa(dp1016
g2
VChiusura di Viale&nbsp;Libert&agrave; carreggiata&nbsp;centrale tratto compreso&nbsp;da Piazza Mordini -&nbsp;Piazza Ruggero Settimo dalle ore 08.00 alle ore 20.00.
p1017
sg4
(lp1018
F38.13021883644226
aF13.352017688360547
asg6
S'1737'
p1019
sa(dp1020
g2
VChiusura al transito veicolare di Via Ruggero Settimo tratto compreso tra &nbsp;Piazza Ruggero Settimo- Emerico Amari e la Via Cavour,dalle ore 08.00 alle ore 20.00.
p1021
sg4
(lp1022
F38.1243943792019
aF13.35591003386071
asg6
S'1738'
p1023
sa(dp1024
g2
VChiusura al transito veicolare di Via Maqueda tratto compreso da Piazza Verdi a Piazza Villena dalle ore 07.00 alle ore 07.00 del giorno successivo.
p1025
sg4
(lp1026
F38.12119337166237
aF13.357926568261746
asg6
S'1739'
p1027
sa(dp1028
g2
VLavori in corso in&nbsp;Via Domenico Scin&agrave; tratto compreso tra Largo Alfano e Via Ettore Pais, causa lavori su rete fognaria chiusura al transito veicolare.
p1029
sg4
(lp1030
I0
aI0
asg6
S'1740'
p1031
sa(dp1032
g2
VVia F.Crispi,alt Porto, da varco E.Amari a varco S.Lucia, causa lavori, doppio senso di circolazione.
p1033
sg4
(lp1034
F38.127117534200664
aF13.362338393115238
asg6
S'1741'
p1035
sa(dp1036
g2
VVia Vincenzo Orsini - Via delle Croci, &nbsp;incidente stradale procedere con prudenza possibili rallentamenti.
p1037
sg4
(lp1038
F38.13184734393131
aF13.355320310975685
asg6
S'1742'
p1039
sa(dp1040
g2
VPiazza Ottavio Ziino incidente stradale possibili rallentamenti procedere con &nbsp;prudenza
p1041
sg4
(lp1042
F38.13086089999999
aF13.338291199999958
asg6
S'1743'
p1043
sa(dp1044
g2
VVia Stefano Vittorio Bozzo lavori sede stradale possibili rallentamenti.
p1045
sg4
(lp1046
F38.0793232
aF13.403561399999944
asg6
S'1744'
p1047
sa(dp1048
g2
VVia Nino Geraci altezza civico 55 lavori sede stradale possibili rallentamenti.
p1049
sg4
(lp1050
F38.1406547
aF13.319349500000044
asg6
S'1745'
p1051
sa(dp1052
g2
VVia Stefano Vittorio Bozzo tra Via Barbagallo e Via L. Zini, causa lavori di ripristino manto stradale, chiusura semicarreggiata interessata ai lavori.
p1053
sg4
(lp1054
F38.07893893850779
aF13.4021666513122
asg6
S'1750'
p1055
sa(dp1056
g2
VVia Mesina Marine angolo Via Sperone, causa lavori manutenzione impianto acque reflue, chiusura parziale al transito.
p1057
sg4
(lp1058
F38.09884990497689
aF13.405830943956971
asg6
S'1751'
p1059
sa(dp1060
g2
VVia Palmerino, 63, tratto compreso tra Via Paruta e Via Due Vanelle, causa lavori su rete elettrica, chiusura al transito veicolare.
p1061
sg4
(lp1062
F38.09545112932955
aF13.328120908984374
asg6
S'1752'
p1063
sa(dp1064
g2
VVia Nino Geraci, 55, causa lavori di scavo su rete elettrica, possibili rallentamenti.
p1065
sg4
(lp1066
F38.1406547
aF13.319349500000044
asg6
S'1753'
p1067
sa(dp1068
g2
VVia Maqueda, causa lavori di scavo per cavidotto e ripristini in sede stradale e marciapiede, possibili rallentamenti
p1069
sg4
(lp1070
F38.1156115
aF13.361482799999976
asg6
S'1754'
p1071
sa(dp1072
g2
VPiazza del parlamento, innanzi Palazzo dei normanni, sede A.R.S., causa manifestazione con presidio, dipendenti ex Spatafora, dalle ore 11.00, possibili rallentamenti
p1073
sg4
(lp1074
F38.1116344
aF13.353907100000015
asg6
S'1755'
p1075
sa(dp1076
g2
VPIazza Verdi, innanzi Teatro Massimo, concentramento dipendenti Ippodromo, che con successivo corteo, attraverso Via Cavour, si porteranno presso Villa Whitaker, sede Prefettura U.T.G. ove sosteranno in presidio, con probabili ripercursioni, al transito veicolare.
p1077
sg4
(lp1078
F38.12234127126853
aF13.362271471966551
asg6
S'1756'
p1079
sa(dp1080
g2
VViale Regione Siciliana, 33, angolo C.so Calatafimi, causa presidio dipendenti &quot;Formazione Professionale&quot;, possibili rallentamenti e/o blocchi non previsti.
p1081
sg4
(lp1082
F38.10345710897614
aF13.330698299475102
asg6
S'1757'
p1083
sa(dp1084
g2
VLungomare Cristoforo Colombo e Via Barbarigo, causa riprese cinematografiche, possibili rallentamenti per chiusure temporanee dalle ore 12.00 alle ore 20.00.
p1085
sg4
(lp1086
F38.19061733475673
aF13.344859555363655
asg6
S'1758'
p1087
sa(dp1088
g2
VViale Regina Elena, tra Viale Principessa Mafalda e Viale Principessa Giovanna, occasione evento &quot;Regata Nazionale Tavole a Vela&quot;, chiusura al transito veicolare.
p1089
sg4
(lp1090
F38.19634048059573
aF13.3351038582623
asg6
S'1759'
p1091
sa(dp1092
g2
VVia Don Orione, Via N. Spedalieri, Via G. Cimbali, Via A. Rallo, causa manifestazione presso Liceo Linguistico Statale &quot;Ninni Cassar&agrave;&quot;, possibili rallentamenti.
p1093
sg4
(lp1094
F38.1393315
aF13.362976900000035
asg6
S'1760'
p1095
sa(dp1096
g2
VViale Strasburgo 253 sinistro stradale,possibili rallentamenti, procedere con prudenza.
p1097
sg4
(lp1098
F38.15959
aF13.323859999999968
asg6
S'1761'
p1099
sa(dp1100
g2
VVia Boris Giuliano altezza civico 3 lavori sede stradale possibili rallentamenti.
p1101
sg4
(lp1102
F38.139189
aF13.342837599999939
asg6
S'1762'
p1103
sa(dp1104
g2
VVia F.P. Di Blasi altezza civico 47 lavori sed stradale possibili rallentamenti.
p1105
sg4
(lp1106
F38.13916469999999
aF13.343527600000016
asg6
S'1763'
p1107
sa(dp1108
g2
VVia Arcoleo Giorgio altezza civico 14 lavori sede stradale possibili rallentamenti.
p1109
sg4
(lp1110
F38.1081627
aF13.360333099999934
asg6
S'1764'
p1111
sa(dp1112
g2
VVia Lo Monaco Ciaccio Antonino altezza via Uditore lavori sede stradale possibili rallentamenti.&nbsp;
p1113
sg4
(lp1114
F38.13278680873892
aF13.323062485705577
asg6
S'1765'
p1115
sa(dp1116
g2
VVia Stabile Stefano altezza civico 54 lavori sede stradale possibili rallentamenti.
p1117
sg4
(lp1118
F38.1544978
aF13.373407499999985
asg6
S'1766'
p1119
sa(dp1120
g2
VVia Zisa altezza civico 124 lavori sede stradale possibili rallentamenti.
p1121
sg4
(lp1122
F38.1157956
aF13.34160410000004
asg6
S'1767'
p1123
sa(dp1124
g2
VViale &nbsp;Regione Siciliana corsia centrale direzione Trapani altezza via Nina Siciliana incidente stradale possibili rallentamenti.
p1125
sg4
(lp1126
F38.116125146693
aF13.329228510034227
asg6
S'1768'
p1127
sa(dp1128
g2
VVia San Ciro altezza via Brancaccio lavori sede stradale possibili rallentamenti.
p1129
sg4
(lp1130
F38.090297213292835
aF13.384641052917459
asg6
S'1769'
p1131
sa(dp1132
g2
VForo Umberto I altezza via Lincoln incidente stradale possibili rallentamenti.
p1133
sg4
(lp1134
F38.1147376206083
aF13.37636571062012
asg6
S'1770'
p1135
sa(dp1136
g2
VPiazza Della Pace altezza civico 2 lavori sede stradale possibili rallentamenti.
p1137
sg4
(lp1138
F38.1312281
aF13.359132000000045
asg6
S'1771'
p1139
sa(dp1140
g2
VViale Michelangelo altezza civico 332 direzione viale Regione Siciliana incidente stradale possibili rallentamenti.
p1141
sg4
(lp1142
F38.1387758
aF13.326730999999995
asg6
S'1772'
p1143
sa(dp1144
g2
VPiazza Vittorio Veneto altezza viale Croce Rossa&nbsp;incidente stradale possibili rallentamenti.
p1145
sg4
(lp1146
F38.145843653105956
aF13.341764646032743
asg6
S'1773'
p1147
sa(dp1148
g2
VViale Diana (Favorita) dopo cancello Giusino si segnala incidente stradale. Traffico intenso.
p1149
sg4
(lp1150
F38.1722274
aF13.337562400000024
asg6
S'1774'
p1151
sa(dp1152
g2
VVia Laurana altezza Via Marchese di Villabianca possibili rallentamenti al flusso veicolare causa sinistro stradale. Procedere con prudenza.
p1153
sg4
(lp1154
F38.1356957
aF13.352806900000019
asg6
S'1775'
p1155
sa(dp1156
g2
VVia San Lorenzo altezza Commissariato di P.S. possibili rallentamenti al flusso veicolare causa sinistro stradale.
p1157
sg4
(lp1158
F38.16653960996379
aF13.31749767777103
asg6
S'1776'
p1159
sa(dp1160
g2
VVia Laurana/Via Marchese di Villabianca flusso veicolare regolare.
p1161
sg4
(lp1162
F38.135273760238015
aF13.351734016394062
asg6
S'1777'
p1163
sa(dp1164
g2
VVia Mariano Stabile dal civico 44 al civico 52 lavori Amap di manutenzione rete idrica; possibili rallentamenti.
p1165
sg4
(lp1166
F38.1247278
aF13.362122
asg6
S'1778'
p1167
sa(dp1168
g2
VVia Cesareo angolo Via Prati incidente stradale; possibili rallentamenti; procedere con prudenza.
p1169
sg4
(lp1170
F38.13681649999999
aF13.3451192
asg6
S'1779'
p1171
sa(dp1172
g2
VVia Ciaculli dal civico 301 al civico 319 lavori Amap di manutenzione rete idrica; possibili rallentamenti.
p1173
sg4
(lp1174
F38.0775395
aF13.403333599999996
asg6
S'1780'
p1175
sa(dp1176
g2
VVia Francesco Salomone tratto Via Albimonte -&nbsp;Via Guglielmo Il Buono lavori Amap di manutenzione rete fognaria comunale; possibili rallentamenti.
p1177
sg4
(lp1178
F38.1160771
aF13.346150800000032
asg6
S'1781'
p1179
sa(dp1180
g2
VVia Zisa 124 lavori Amap di razionalizzazione ramo privato; possibili rallentamenti.
p1181
sg4
(lp1182
F38.1157956
aF13.34160410000004
asg6
S'1782'
p1183
sa(dp1184
g2
VVia Lo Monaco Ciaccio angolo Via Uditore lavori Amap di razionalizzazione ramo privato; possibili rallentamenti.
p1185
sg4
(lp1186
F38.1327755
aF13.323025799999982
asg6
S'1783'
p1187
sa(dp1188
g2
VVia Stefano Vittorio Bozzo tratto compreso fra Via Barbagallo e Via Luigi Zini &nbsp;lavori Amap di manutenzione e messa in sicurezza dei serbatoi e della rete idrica; possibili rallentamenti.
p1189
sg4
(lp1190
F38.0793232
aF13.403561399999944
asg6
S'1784'
p1191
sa(dp1192
g2
VVia Boris Giuliano civico 3 e Via F.P. Di Blasi civico 47 lavori Enel per guasto elettrico; possibili rallentamenti.
p1193
sg4
(lp1194
F38.139189
aF13.342837599999939
asg6
S'1785'
p1195
sa(dp1196
g2
VViale Regina Elena tratto Via P.ssa Mafalda e Via P.ssa Giovanna chiusura al transito veicolare eccetto autorizzati dalle 08.00 del 19 04 2017 alle ore 24.00 del 27 04 2017 per la manifestazione &quot; Regata Nazionale Tavole a Vela presso CCR - Lauria.
p1197
sg4
(lp1198
F38.19632820361051
aF13.334525632849136
asg6
S'1786'
p1199
sa(dp1200
g2
VVia San Ciro dal civico 2 al civico 23/H chiusura al transito veicolare dalle ore 12.00 fino al termine della manifestazione per inaugurazione Centro Aggregativo:
p1201
sg4
(lp1202
F38.0952674
aF13.383336500000041
asg6
S'1787'
p1203
sa(dp1204
g2
VPiazza Indipendenza/corso Re Ruggero sinistro stradale, possibili rallentamenti,procedere con prudenza.
p1205
sg4
(lp1206
F38.10999614627072
aF13.352913865467826
asg6
S'1788'
p1207
sa(dp1208
g2
VVia Boris Giuliano altezza civ.3 scavo parziale della carreggiata per lavori alla rete elettrica,procedere con prudenza.
p1209
sg4
(lp1210
F38.139189
aF13.342837599999939
asg6
S'1789'
p1211
sa(dp1212
g2
VVia F.P. di blasi altezza civ. 47&nbsp;scavo parziale della carreggiata per lavori alla rete elettrica,procedere con prudenza.
p1213
sg4
(lp1214
F38.13916469999999
aF13.343527600000016
asg6
S'1790'
p1215
sa(dp1216
g2
VVia Guido Rossi -Via dell&#39;Antilope incidente stradale possibili rallentamenti procedere con prudenza
p1217
sg4
(lp1218
F38.08191418113265
aF13.357572468786657
asg6
S'1791'
p1219
sa(dp1220
g2
VLimitazione temporanea della circolazione veicolare in Via Roma, nel tratto compreso tra Piazza Giulio Cesare e Via Epicarmio ed altre vie e piazze&nbsp;interessate dallo Street Food Fest, dalle ore 10.00 del 22 Aprile alle ore 02.00 del 23 Aprile 2017.
p1221
sg4
(lp1222
F38.11054961104456
aF13.366557714294458
asg6
S'1792'
p1223
sa(dp1224
g2
VLimitazione della circolazione veicolare tratto compreso tra Via Turati- Via Emerico Amari,dalle ore 15.00 - alle ore 20.00.
p1225
sg4
(lp1226
F38.1250153
aF13.35549990000004
asg6
S'1793'
p1227
sa(dp1228
g2
VVia Ruggero Settimo - tratto compreso tra Piazza Ruggero Settimo - Via Emerico Amari e la Via Cavour: chiusura al transito veicolare dalle ore 15.00 alle ore 20.00.
p1229
sg4
(lp1230
F38.12431291721021
aF13.355848069836384
asg6
S'1794'
p1231
sa(dp1232
g2
VLimitazione temporanea &nbsp;della circolazione veicolare in Via Dell&#39; Universit&agrave; - Vicolo Panormita -Via Giuseppe Alessi fino alle ore 15.00.
p1233
sg4
(lp1234
F38.1143242
aF13.36130700000001
asg6
S'1795'
p1235
sa(dp1236
g2
VVia Guglielmo Il&nbsp;Buono incidente stradale possibili rallentamenti procedere con prudenza.
p1237
sg4
(lp1238
F38.1168401
aF13.344518200000039
asg6
S'1796'
p1239
sa(dp1240
g2
VViale Piemonte civ.51 incidente stradale possibili rallentamenti procedere con prudenza.
p1241
sg4
(lp1242
F38.1423658
aF13.34074720000001
asg6
S'1797'
p1243
sa(dp1244
g2
VVia Catania - Via Riolo incidente stradale possibili rallentamenti procedere con prudenza.
p1245
sg4
(lp1246
F38.12730235308405
aF13.347942440336624
asg6
S'1798'
p1247
sa(dp1248
g2
VFORO UMBERTO I&deg;/VIA LINCOLN SINISTRO STRADALE POSSIBILI RALLENTAMENTI,PROCEDERE CON PRUDENZA.
p1249
sg4
(lp1250
F38.115142796784134
aF13.376258422259525
asg6
S'1799'
p1251
sa(dp1252
g2
VPIAZZA SACRO CUORE/VIA GUGLIELMO IL BUONO SINISTRO STRADALE,PROCEDERE CON PRUDENZA,POSSIBILI RALLENTAMENTI.
p1253
sg4
(lp1254
F38.11816432502036
aF13.3429202920654
asg6
S'1800'
p1255
sa(dp1256
g2
VChiusura al transito veicolare dalle ore 08.00 alle ore 20.00 di Via Della Libert&agrave; ( carreggiata centrale) - tratto compreso tra Piazza Mordini e Piazza Ruggero Settimo/Castelnuovo
p1257
sg4
(lp1258
F38.1301682
aF13.351910399999952
asg6
S'1801'
p1259
sa(dp1260
g2
VLimitazione della circolazione veicolare all&#39;interno del Parco Della Favorita ( Viale Diana - Viale Ercole), dalle ore 08.00 alle ore 15.00 per consentire lo svolgimento della manifestazione&nbsp;denominata &quot; La Domenica in Favorita&quot; 2017.
p1261
sg4
(lp1262
F38.1620891
aF13.337670600000024
asg6
S'1802'
p1263
sa(dp1264
g2
VLimitazione temporanea della circolazione veicolare in via Roma, nel tratto compreso tra Piazza Giulio Cesare e Via Epicarmo, per consentire lo svolgimento della manifestazione denominata Street Food Fest- 2017
p1265
sg4
(lp1266
F38.1107307
aF13.366425299999946
asg6
S'1803'
p1267
sa(dp1268
g2
VLimitazione della circolazione veicolare in Via Ruggero Settimo - tratto compreso tra la Piazza Ruggero Settimo/Amari e la Via Cavour, chiusura al transito veicolare dalle ore 08.00 alle ore 20.00.
p1269
sg4
(lp1270
F38.12439731803056
aF13.355826612164265
asg6
S'1804'
p1271
sa(dp1272
g2
VLimitazione della circolazione veicolare in Corso Vittorio Emanuele tratto da Porta Nuova a Piazza Vigliena per consentire lo svolgimento della manifestazione denominata &quot; La via dei Librai II Edizione&quot;.
p1273
sg4
(lp1274
F38.112049539662095
aF13.352413151251085
asg6
S'1805'
p1275
sa(dp1276
g2
VINCIDENTE STRADALE IN PIAZZA DURANTE PROCEDERE CON PRUDENZA -POSSIBILI RALLENTAMENTI.
p1277
sg4
(lp1278
F38.10329790000001
aF13.362871199999972
asg6
S'1806'
p1279
sa(dp1280
g2
VVia Boris Giuliano altezza numero,3 &nbsp;possibili rallentamenti al flusso veicolare causa lavori su sede stradale.
p1281
sg4
(lp1282
F38.1393254
aF13.342612199999962
asg6
S'1807'
p1283
sa(dp1284
g2
VViale Regina Elena tratto compreso tra Viale Prinipessa Mafalda e Viale Principessa Giovanna limitazione della circolazione veicolare in occasione dell&#39; evento Regata Nazionale Tavole e Vela.&nbsp;
p1285
sg4
(lp1286
F38.19748485009287
aF13.331170445199632
asg6
S'1808'
p1287
sa(dp1288
g2
VPiazza Casa Professa dalle oe 14.00 limitazione della circolazione veicolare per lo svolgimento 72&deg; Anniversario della Liberazione.
p1289
sg4
(lp1290
I0
aI0
asg6
S'1809'
p1291
sa(dp1292
g2
VVia Agostino Barbarigo prossimit&agrave; intersezione con Lungomare C. Colombo limitazione della circolazione veicolare per consentire&nbsp;la effettuazione di riprese cinematografiche.
p1293
sg4
(lp1294
F38.19069690240069
aF13.345014766626036
asg6
S'1810'
p1295
sa(dp1296
g2
VVia Dell&#39; Incoronazione altezza Via M. Bonello, causa sinistro stradale possibili rallentamenti al flusso veicolare.
p1297
sg4
(lp1298
F38.1142645708765
aF13.355273085705562
asg6
S'1811'
p1299
sa(dp1300
g2
VVia Maqueda tratto Corso V. Emanuele/Corso Tukory&nbsp;previsti lavori di scavo su sede stradale.&nbsp;
p1301
sg4
(lp1302
F38.11292718317852
aF13.363253057949805
asg6
S'1812'
p1303
sa(dp1304
g2
VVia Lanza di Scalea,nr. 325 possibili rallentamenti al flusso veicolare causa sinistro stradale.
p1305
sg4
(lp1306
F38.1693221
aF13.315387600000008
asg6
S'1813'
p1307
sa(dp1308
g2
VVia Messina Marine altezza &nbsp;Buccheri La Ferla possibili rallentamenti al flusso veicolare causa sinistro stradale. Procedere con prudenza.
p1309
sg4
(lp1310
F38.10614
aF13.386639999999943
asg6
S'1814'
p1311
sa(dp1312
g2
VPiazza Nasc&egrave; causa sinistro stradale,possibili rallentamenti al flusso veicolare nelle Vie Limitrofe.&nbsp;
p1313
sg4
(lp1314
F38.12769503117874
aF13.35685120895505
asg6
S'1815'
p1315
sa(dp1316
g2
VVia Arcoleo altezza Via S. Morso, rallentamenti al flusso veicolare causa sinistro stradale, Procedere con prudenza.
p1317
sg4
(lp1318
F38.1067081
aF13.361306900000045
asg6
S'1816'
p1319
sa(dp1320
g2
VVia Rosario Ncoletti direzione Palermo incidente stradale; possibili rallentamenti; procedere con prudenza.
p1321
sg4
(lp1322
F38.190663213885834
aF13.29183544393311
asg6
S'1817'
p1323
sa(dp1324
g2
VPiazza Casa Professa chiusura al transito veicolare dalle ore 07.00 alle ore 24.00 per Anniversario della Liberazione.
p1325
sg4
(lp1326
F38.1134511
aF13.36125620000007
asg6
S'1818'
p1327
sa(dp1328
g2
VVia PV 46 tratto compreso tra Via Patti e Via Cesare Brandi chiusura al&nbsp;transito veicolare per gara ciclistica &nbsp;&quot;Trittico 2017&quot;.
p1329
sg4
(lp1330
F38.17844111991733
aF13.32229855081789
asg6
S'1819'
p1331
sa(dp1332
g2
VVia Maqueda, Piazza Villena, Via Vittorio Emanuele e Via della Vittoria chiusura al transito veicolare dalle ore 07.00 alle ore 13.00 per manifestazione Trofeo Equilibra.
p1333
sg4
(lp1334
F38.11790744113435
aF13.360088051312232
asg6
S'1820'
p1335
sa(dp1336
g2
VViale Regina Elena, Viale Principessa Giovanna e Viale Principessa Mafalda chiusura al transito veicolare per manifestazione &quot; Regata Nazionale Tavole a Vela&quot;.
p1337
sg4
(lp1338
F38.19632717423345
aF13.33506379276514
asg6
S'1821'
p1339
sa(dp1340
g2
VVia Libert&agrave; tratto Piazza Crispi - Piazza Ruggero Settimo chiusura al transito veicolare dalle ore 08.00 alle ore 20.00.
p1341
sg4
(lp1342
F38.129262555993684
aF13.352702334523201
asg6
S'1822'
p1343
sa(dp1344
g2
VVia Ruggero Settimo tratto Piazza Ruggero Settimo - Via Cavour chiusura al transito veicolare dalle ore 08.00 alle ore 20.00.
p1345
sg4
(lp1346
F38.12331698016148
aF13.356513257672077
asg6
S'1823'
p1347
sa(dp1348
g2
VVia Empedocle Restivo angolo Via Sardegna incidente stradale; possibili rallentamenti.
p1349
sg4
(lp1350
F38.1460672
aF13.334829200000058
asg6
S'1824'
p1351
sa(dp1352
g2
VVia del Levriere 98 incidente stradale; possibili rallentamenti.
p1353
sg4
(lp1354
F38.0845694
aF13.365692699999954
asg6
S'1825'
p1355
sa(dp1356
g2
VPiazza Leoni incidente stradale; possibili rallentamenti.
p1357
sg4
(lp1358
F38.1463503
aF13.344563900000026
asg6
S'1826'
p1359
sa(dp1360
g2
VVia de Amicis 18 scavo con chiusura parziale della carreggiata,per lavori urgenti alla rete elettrica,possibili rallentamenti.
p1361
sg4
(lp1362
F38.138767
aF13.348056600000064
asg6
S'1827'
p1363
sa(dp1364
g2
VLimitazione della circolazione a P.zza Casa Professa dalle ore 07.00 del 27.04.2017 alle ore 06.00 del 02.05.2017 - Ballar&ograve; di Primavera 2017
p1365
sg4
(lp1366
F38.1134511
aF13.36125620000007
asg6
S'1828'
p1367
sa(dp1368
g2
VVia Imperatore Federico, alt. MOTOR VILLAGE, probabili rallentamenti per manifestazione. &quot;Grandi corse di Sicilia - L&#39;ultima vittoria di Nuvolari&quot;&nbsp;
p1369
sg4
(lp1370
F38.1466141011069
aF13.35142823757326
asg6
S'1829'
p1371
sa(dp1372
g2
VManifestazione &quot;Social Artisti Day 2&quot; a Piazza Sant.Anna - probabili disagi alla circolazione stradale.
p1373
sg4
(lp1374
F38.1148595
aF13.365166799999997
asg6
S'1830'
p1375
sa(dp1376
g2
VSit-in di protesta davanti Palazzo delle Aquile dalle ore 15.00. Probabili disagi alla circolazione.
p1377
sg4
(lp1378
F38.1156851
aF13.361998699999958
asg6
S'1831'
p1379
sa(dp1380
g2
VLimitazione temp.della circolazione e della sosta in Via Scala di Carini tratto compreso tra Via Mim&igrave; Lazzaro, al civ.52 - Lavori di scarifica e stesura del tappetino stradale.
p1381
sg4
(lp1382
F38.1258004
aF13.2835192
asg6
S'1832'
p1383
sa(dp1384
g2
VManifestazione culturale con Sfilata di moda in P.zza S.Spirito e Scalinata delle Mura delle Cattive dal 26 al 30 Aprile. Probabili rallentamenti.
p1385
sg4
(lp1386
F38.1193181
aF13.37103419999994
asg6
S'1833'
p1387
sa(dp1388
g2
VVia Monte San Calogero 11/A incidente stradale. Possibili rallentamenti.
p1389
sg4
(lp1390
F38.1522795
aF13.326622100000009
asg6
S'1835'
p1391
sa(dp1392
g2
VVia Mariano Stabile/ Roma incidente stradale. Possibili rallentamenti.
p1393
sg4
(lp1394
F38.123679324866956
aF13.359468230163657
asg6
S'1837'
p1395
sa(dp1396
g2
VVia Archimede- via G. Daita incidente stradale. Si consigliano percorsi alternativi
p1397
sg4
(lp1398
F38.128509228422686
aF13.354184236106903
asg6
S'1838'
p1399
sa(dp1400
g2
VCorso Alberto Amedeo altezza civ.114, incidente stradale procedere con prudenza.
p1401
sg4
(lp1402
F38.1162479
aF13.350960900000018
asg6
S'1839'
p1403
sa(dp1404
g2
VVia La Farina angolo Via Noto, previsti lavori scavo su sede stradale.
p1405
sg4
(lp1406
F38.1286692
aF13.34890089999999
asg6
S'1840'
p1407
sa(dp1408
g2
VVia La Farina altezza via Noto lavori sede stradale possibili rallentamenti.
p1409
sg4
(lp1410
F38.1286692
aF13.34890089999999
asg6
S'1841'
p1411
sa(dp1412
g2
VVia Cosimo Aleo altezza via Nina Siciliana incidente stradale possibili rallentamenti.
p1413
sg4
(lp1414
F38.115922621330746
aF13.331905725933893
asg6
S'1842'
p1415
sa(dp1416
g2
VVia R. Settimo altezza via Cavour incidente stradale possibili rallentamenti.
p1417
sg4
(lp1418
F38.12128083263038
aF13.357855296295156
asg6
S'1843'
p1419
sa(dp1420
g2
VVia Sferracavallo altezza civico 150 lavori sede stradale possibili rallentamenti.
p1421
sg4
(lp1422
F38.1945331
aF13.2816914
asg6
S'1844'
p1423
sa(dp1424
g2
VVia Salamone&nbsp;Marino altezza via Del Vespro incidente stradale possibili rallentamenti.
p1425
sg4
(lp1426
F38.108562688075864
aF13.361936184408592
asg6
S'1845'
p1427
sa(dp1428
g2
VCorso Tukory altezza via Filiciuzza incidente stradale possibili rallentamenti.
p1429
sg4
(lp1430
F38.108196455813676
aF13.35676501066746
asg6
S'1846'
p1431
sa(dp1432
g2
VVia Sferracavallo chiusura al transito veicolare per lavori sede stradale si consigliano percorsi alternativi.
p1433
sg4
(lp1434
F38.1945331
aF13.2816914
asg6
S'1847'
p1435
sa(dp1436
g2
VVia Zandonai altezza via Cilea incidente stradale possibili rallentamenti.
p1437
sg4
(lp1438
F38.13359374466355
aF13.338352181017399
asg6
S'1848'
p1439
sa(dp1440
g2
VVia La Farina altezza via Noto lavori sede stradale possibili rallentamenti.
p1441
sg4
(lp1442
F38.12867763958278
aF13.34890089999999
asg6
S'1849'
p1443
sa(dp1444
g2
VVia Sammartino altezza via Marconi incidente stradale possibili ralentamenti.
p1445
sg4
(lp1446
F38.125413039248656
aF13.3496475657455
asg6
S'1850'
p1447
sa(dp1448
g2
VVIA PIETRO BONANNO / CARDINALE RAMPOLLA POSSIBILI RIPERCUSSIONI SULLA CIRCOLAZIONE VEICOLARE &nbsp;CAUSA MANIFESTAZIONE SPORTIVA.
p1449
sg4
(lp1450
F38.148048112099445
aF13.357492981414794
asg6
S'1851'
p1451
sa(dp1452
g2
VORE 10.00 CHIUSURA AL TRANSITO VEICOLARE DI VIA MAQUEDA NEL TRATTO P.ZZA VERDI / C.SO V. EMANUELE . RIAPERTURA MARTEDI&#39; 02/05/2017 ORE 07.00.&nbsp;
p1453
sg4
(lp1454
F38.12006826096887
aF13.358564556591773
asg6
S'1852'
p1455
sa(dp1456
g2
VVIA RUGGERO SETTIMO TRATTO VIA E. AMARI/ CAVOUR CHIUSURA AL TRANSITO VEICOLARE DALLE ORE 15.00 ALLE ORE 20.00.
p1457
sg4
(lp1458
F38.12439731803056
aF13.355890985180622
asg6
S'1853'
p1459
sa(dp1460
g2
VVIA AUSONIA 34 INCIDENTE STRADALE. PROCEDERE CON PRUDENZA.
p1461
sg4
(lp1462
F38.1472894
aF13.33654869999998
asg6
S'1855'
p1463
sa(dp1464
g2
VVIA BELGIO INCROCIO VIA VILLA BARBERA INCIDENTE STRADALE. POSSIBILI RALLENTAMENTI, PROCEDERE CON PRUDENZA.
p1465
sg4
(lp1466
F38.150329199999995
aF13.329698045507826
asg6
S'1856'
p1467
sa(dp1468
g2
VViale Regione Siciliana correggiata laterale con dir. TP altezza Viale Lazio possibili rallentamenti al flusso veicolare causa sinistro stradale. &nbsp;
p1469
sg4
(lp1470
F38.14001688080344
aF13.331197221453863
asg6
S'1857'
p1471
sa(dp1472
g2
VViale Strasburgo prossimit&agrave; Viale Francia&nbsp;possibili rallentamenti al flusso veicolare causa sinistro stradale, Procedere con prudenza.
p1473
sg4
(lp1474
F38.1568587
aF13.32648979999999
asg6
S'1858'
p1475
sa(dp1476
g2
VVia Emanuele Palazzotto possibili rallentamenti al flusso veicolare causa sinistro stradale.
p1477
sg4
(lp1478
F38.1959473
aF13.275536800000054
asg6
S'1859'
p1479
sa(dp1480
g2
VPer le ore 15.00 presso lo Stadio Comunale &quot;Renzo Barbera&quot; di Viale del Fante avra&#39; luogo l&#39; incontro di calcio &quot; Palermo &nbsp;Fiorentina&quot;. Prevista chiusura al transito veicolare sin dalle ore 12.00
p1481
sg4
(lp1482
F38.152232354505024
aF13.34098644554615
asg6
S'1860'
p1483
sa(dp1484
g2
VVia Partanna Mondello di fronte numero civico 39G previsti lavori di scavo su sede stradale. Possibili rallentamenti al flusso veicolare.
p1485
sg4
(lp1486
F38.1916023
aF13.301180700000032
asg6
S'1861'
p1487
sa(dp1488
g2
VVia La Farina angolo Via Noto possibili rallentamenti al flusso veicolare causa lavori su sede stradale.&nbsp;
p1489
sg4
(lp1490
F38.1286692
aF13.34890089999999
asg6
S'1862'
p1491
sa(dp1492
g2
VDalle ore 08.00 alle ore 13.00 prevista chiusura al transito veicolare in occasione di Gare&nbsp;Ciclistiche&nbsp; &quot;Trofeo Santa Rosalia&quot; &nbsp;Vie interessate: Via Salvatore Corleone, Via Utveggio, Via Vittorio Ducrot, Via Giovan Francesco Langer, Via Vittorio Zaban, Via Salvatore Corleone.&nbsp;
p1493
sg4
(lp1494
F38.0920733
aF13.395548200000007
asg6
S'1863'
p1495
sa(dp1496
g2
VLimitazione della circolazione veicolare in alcune vie e piazze cittadine per lo svolgimento manifestazione denominata &quot;L&#39; Ultima Vittoria di Nuvolari&quot; &nbsp; Vie interessate alla suddetta manifestazione Piazza Verdi, Via Cavour, Via Roma, Piazza Don Sturzo, Via Isidoro Carini, Via Pasquale Calvi,Via Gen.C. Alberto Dalla Chiesa sino a raggiungere Via Marchese di Villabianca, Via Marchese di Roccaforte, Piazza Don Bosco e Via Imperatore Federico.
p1497
sg4
(lp1498
F38.1206363
aF13.356896600000027
asg6
S'1864'
p1499
sa(dp1500
g2
VVia Li Muli prevista nella mattinata cerimonia commemorativa in occasione dell&#39;eccidio Pio La Torre. Interessato alla suddetta manifestazione anche il Giardino &quot;La Torre - Di Salvo&quot; di Via Nazario Sauro angolo Via della Regione Siciliana.
p1501
sg4
(lp1502
F38.1051857
aF13.34111770000004
asg6
S'1865'
p1503
sa(dp1504
g2
VVia Cala possibili rallentamenti al flusso veicolare causa sinistro stradale.
p1505
sg4
(lp1506
F38.1194283
aF13.369145099999969
asg6
S'1866'
p1507
sa(dp1508
g2
VCorso dei Mille altezza intersezione Via Chiaravelli possibili rallentamenti al flusso veicolare causa sinistro stradale. Procedere con prudenza.
p1509
sg4
(lp1510
F38.09024217620804
aF13.416399746835395
asg6
S'1867'
p1511
sa(dp1512
g2
VVia Cala sinistro rilevato e normale flusso veicolare ripristinato.
p1513
sg4
(lp1514
F38.1194283
aF13.369145099999969
asg6
S'1868'
p1515
sa(dp1516
g2
VIl parco della Favorita e&#39; stato riaperto al&nbsp;traffico per fine manifestazione.
p1517
sg4
(lp1518
F38.1620891
aF13.337670600000024
asg6
S'1869'
p1519
sa(dp1520
g2
VViale Strasburgo angolo Via Ingegneros incidente stradale; possibili rallentamenti.
p1521
sg4
(lp1522
F38.1580143
aF13.325382999999988
asg6
S'1870'
p1523
sa(dp1524
g2
VPiazza Ruggero Settimo per le ore 10.00 circa presso Teatro Politeama avr&agrave; luogo cerimonia consegna decorazioni&nbsp;&quot;Stelle al Merito del Lavoro&quot; . Possibili i rallentamenti al flusso veicolare.
p1525
sg4
(lp1526
F38.1253246
aF13.355829399999948
asg6
S'1871'
p1527
sa(dp1528
g2
VPiazza Casa Professa prevista manifestazione &quot;Il villaggio dell&#39; Intercultura&quot;. Prevista limitazione della circolazione veicolare.
p1529
sg4
(lp1530
F38.1134511
aF13.36125620000007
asg6
S'1872'
p1531
sa(dp1532
g2
VCon riferimento alla manifestazione che si svolger&agrave; a Piazza Casa Professa si precisa che &egrave; prevista la chiusura al transito veicolare sull&#39; intera Piazza. Possibili i rallentamenti al fliusso veicolare nelle vie limitrofe.&nbsp;
p1533
sg4
(lp1534
F38.1134511
aF13.36125620000007
asg6
S'1873'
p1535
sa(dp1536
g2
VDalle ore 08.00 alle ore 20.00 chiusura asse Libert&agrave; (corsia centrale)&nbsp;da piazza Mordini a P. Ruggero Settimo
p1537
sg4
(lp1538
F38.1301682
aF13.351910399999952
asg6
S'1874'
p1539
sa(dp1540
g2
VDalle ore 08.00 alle ore 20.00 chiusura al traffico di &nbsp;Via Ruggero Settimo da piazza R. Settimo a Via Cavour
p1541
sg4
(lp1542
F38.1246674
aF13.356491799999958
asg6
S'1875'
p1543
sa(dp1544
g2
VVia A.Borrelli / Via G. Castriota incidente stradale possibili rallentementi procedere con prudenda
p1545
sg4
(lp1546
F38.13067128226204
aF13.353820499266817
asg6
S'1876'
p1547
sa(dp1548
g2
VVIA INGEGNEROS INCROCIO VIA S. LORENZO INCIDENTE STRADALE. POSSIBILI RALLENTAMENTI , PROCEDERE CON PRUDENZA.
p1549
sg4
(lp1550
F38.15999139622773
aF13.329744921704105
asg6
S'1877'
p1551
sa(dp1552
g2
VVIA ORFEO 7 INCIDENTE STRADALE . POSSIBILI RALLENTAMENTI, PROCEDERE CON PRUDENZA.
p1553
sg4
(lp1554
F38.192549
aF13.333491699999968
asg6
S'1878'
p1555
sa(dp1556
g2
VViale Regina Elena altezza via Teti incidente stradale possibili rallentamenti.
p1557
sg4
(lp1558
F38.2047679011685
aF13.325094985952774
asg6
S'1879'
p1559
sa(dp1560
g2
VCorso Calatafimi altezza via Gino Marinuzzi lavori sede stradale possibili rallentamenti.
p1561
sg4
(lp1562
F38.10486518160509
aF13.334822993115267
asg6
S'1880'
p1563
sa(dp1564
g2
VVia Bragaglia altezza civico 24 lavori sede stradale possibili rallentamenti.
p1565
sg4
(lp1566
F38.1034619
aF13.321396100000015
asg6
S'1881'
p1567
sa(dp1568
g2
VVia Leonardo Da Vinci altezza via Uditore incidente stradale possibili rallentamenti.
p1569
sg4
(lp1570
F38.128167456570935
aF13.32750413652343
asg6
S'1882'
p1571
sa(dp1572
g2
VVia Pandolfini chiusura al transito veicolare per lavori sede stradale si consigliano percorsi alternativi.
p1573
sg4
(lp1574
F38.1132898
aF13.306881799999928
asg6
S'1883'
p1575
sa(dp1576
g2
VINCIDENTE STRADALE VIA LULLI/SERRADIFALCO - PROBABILI RALLENTAMENTI&nbsp;
p1577
sg4
(lp1578
F38.12916984796373
aF13.33791234033663
asg6
S'1884'
p1579
sa(dp1580
g2
VINCIDENTE STRADALE VIALE STRASBURGO, 135 - PROBABILI RALLENTAMENTI
p1581
sg4
(lp1582
F38.1533354
aF13.329907700000035
asg6
S'1885'
p1583
sa(dp1584
g2
VRIAPERTURA AL TRANSITO VEICOLARE DELLA VIA PANDOLFINI
p1585
sg4
(lp1586
F38.1132898
aF13.306881799999928
asg6
S'1886'
p1587
sa(dp1588
g2
VVia Villafranca altezza intersezione Via P. Paternostro possibili rallentamenti al flusso veicolare causa sinistro stradale.
p1589
sg4
(lp1590
F38.12297820684294
aF13.353041996711681
asg6
S'1887'
p1591
sa(dp1592
g2
VVia Mater Dolorosa altezza numero civico 94 possibili rallentamenti al flusso veicolare causa sinistro stradale.
p1593
sg4
(lp1594
F38.173766339203205
aF13.330470044180288
asg6
S'1888'
p1595
sa(dp1596
g2
VVia Villafranca/Paternostro normale flusso veicolare ripristinato.
p1597
sg4
(lp1598
F38.12311373832047
aF13.353115483081183
asg6
S'1889'
p1599
sa(dp1600
g2
VLimitazione della circolazione veicolare in Corso Calatafimi - Via Gino Marinuzzi &nbsp;per lavori ENEL possibili rallentamenti.
p1601
sg4
(lp1602
F38.104882066272495
aF13.334865908459506
asg6
S'1890'
p1603
sa(dp1604
g2
VLimitazione della circolazione veicolare in&nbsp;Via Cavallacci Pietratagliata civ.24 per lavori ENEL sulla sede stradale&nbsp;
p1605
sg4
(lp1606
F38.1026455
aF13.321528100000023
asg6
S'1891'
p1607
sa(dp1608
g2
VChiusura Totale/Parziale al transito veicolare &nbsp;per lavori urgenti AMAP in Via Brancaccio - Via Lizio, possibili rallentamenti
p1609
sg4
(lp1610
F38.10171651694877
aF13.379027767459093
asg6
S'1892'
p1611
sa(dp1612
g2
VChiusura al transito veicolare per lavori urgenti AMAP in Via Crociferi alt civ.5/9.
p1613
sg4
(lp1614
F38.1203841
aF13.33860930000003
asg6
S'1893'
p1615
sa(dp1616
g2
VChiusura al transito veicolare per lavori urgenti AMAP in Piazza Bara all&#39; Olivella.
p1617
sg4
(lp1618
F38.1210754
aF13.360700599999973
asg6
S'1894'
p1619
sa(dp1620
g2
VChiusura Totale / parziale al transito veicolare per lavori urgenti AMAP in Piazza SS:Quaranta Martiri al Casalotto civ.10.
p1621
sg4
(lp1622
F38.1133112
aF13.362520600000039
asg6
S'1895'
p1623
sa(dp1624
g2
VLimitazione temporanea&nbsp;della circolazione pedonale e veicolare e della sosta in Via Pandolfini - Via Bologni per lavori RAP, possibili rallentamenti.
p1625
sg4
(lp1626
F38.13254
aF13.342470000000048
asg6
S'1896'
p1627
sa(dp1628
g2
VVIA ERNESTO BASILE / LUSSORIO CAU SINISTRO STRADALE, POSSIBILI RALLENTAMENTI, PROCEDERE CON PRUDENZA..
p1629
sg4
(lp1630
F38.094947824032424
aF13.341332632788067
asg6
S'1897'
p1631
sa(dp1632
g2
Vvia Bragaglia lavori di scavo per manutenzione rete elettrica
p1633
sg4
(lp1634
F38.1027478
aF13.321605200000022
asg6
S'1900'
p1635
sa(dp1636
g2
VC.so &nbsp;Calatafimi angolo via Marinuzzi scavo manutenzione alla rete elettrica
p1637
sg4
(lp1638
F38.1037339
aF13.335681300000033
asg6
S'1901'
p1639
sa(dp1640
g2
VVia Val Platani,4 lavori di scavo per manutenzione rete idrica
p1641
sg4
(lp1642
F38.1498202
aF13.338580500000035
asg6
S'1902'
p1643
sa(dp1644
g2
VVia Malvica Giuseppe,42 lavori di scavo per manutenzione alla rete idrica
p1645
sg4
(lp1646
F38.17460519999999
aF13.32778159999998
asg6
S'1903'
p1647
sa(dp1648
g2
VVia Salvatore amorsa,3 chiusura totale/parziale per lavori di scavo manutenzione alla rete idrica
p1649
sg4
(lp1650
F38.1067081
aF13.361306900000045
asg6
S'1904'
p1651
sa(dp1652
g2
VViale Diana altezza campo ostacoli incidente stradale possibili rallentamenti,procedere con prudenza.
p1653
sg4
(lp1654
F38.1531607
aF13.34819349999998
asg6
S'1905'
p1655
sa(dp1656
g2
VChiusura al transito veicolare per lavori di scavo via &nbsp;Pandolfini tratto Piazza P.Micca via Roccazzo
p1657
sg4
(lp1658
F38.1132898
aF13.306881799999928
asg6
S'1906'
p1659
sa(dp1660
g2
VPiazza S.-Euno lavori di scavo per manutenzione rete elettrica.
p1661
sg4
(lp1662
F38.1152437
aF13.369994099999985
asg6
S'1907'
p1663
sa(dp1664
g2
V&nbsp;Viale Regione Siciliana carreggiata laterale direzione Trapani altezza via Perpignano incidente stradale,procedere con prudenza.
p1665
sg4
(lp1666
F38.11874669083225
aF13.329379856586456
asg6
S'1908'
p1667
sa(dp1668
g2
VVia Saladino altezza via Biscottari incidente stradale possibili rallentamenti.
p1669
sg4
(lp1670
F38.1128613
aF13.359218100000021
asg6
S'1910'
p1671
sa(dp1672
g2
VVia Giuseppe Crispi altezza via Majelli incidente stradale possibili rallentamenti.
p1673
sg4
(lp1674
F38.124040548160345
aF13.338603032154879
asg6
S'1911'
p1675
sa(dp1676
g2
VVIA DEI CANTIERI / LARGO VILLAURA SINISTRO STRADALE, POSSIBILI RALLENTAMENTI, PROCEDERE CON PRUDENZA.
p1677
sg4
(lp1678
F38.13685845370133
aF13.362239930549663
asg6
S'1912'
p1679
sa(dp1680
g2
VVia Bragaglia ( Cavallacci Pietratafgliata civico 24 ) lavori Enel sulla sede stradale; possibili rallentamenti.
p1681
sg4
(lp1682
F38.1027478
aF13.321605200000022
asg6
S'1913'
p1683
sa(dp1684
g2
VVia Pandolfini e Via Bologni lavori Rap di manutenzione sede stradale con chiusura totale al transito veicolare.
p1685
sg4
(lp1686
F38.1132898
aF13.306881799999928
asg6
S'1914'
p1687
sa(dp1688
g2
VCorso Calatafimi angolo Via Gino Marinuzzi lavori Enel su sede stradale; possibili rallentamenti.
p1689
sg4
(lp1690
F38.1048895
aF13.334774000000039
asg6
S'1915'
p1691
sa(dp1692
g2
VParco della Salute presso Foro Umberto I&deg; dalle ore 10.00 alle ore 17.00 manifestazione &quot; Il gol delle donne 2017&quot;.
p1693
sg4
(lp1694
F38.1166675
aF13.374307700000031
asg6
S'1916'
p1695
sa(dp1696
g2
VCorso Calatafimi civ.86 incidente stradale possibili rallentamenti procedere con prudenza.
p1697
sg4
(lp1698
F38.1096159
aF13.346786599999973
asg6
S'1917'
p1699
sa(dp1700
g2
VVia del Bassotto - Via del Levriere incidente stradale possibili rallentamenti procedere con prudenza.
p1701
sg4
(lp1702
F38.08496638302254
aF13.365821948162875
asg6
S'1918'
p1703
sa(dp1704
g2
VVia Montepellegrino civ.61, incidente stradale possibili rallentamenti procedere con prudenza.
p1705
sg4
(lp1706
F38.137118
aF13.35877389999996
asg6
S'1919'
p1707
sa(dp1708
g2
VVia G. Alessi altezza via Sampolo incidente stradale possibili rallentamenti.
p1709
sg4
(lp1710
F38.1406137
aF13.350937199999976
asg6
S'1920'
p1711
sa(dp1712
g2
VVia della Libert&agrave; carreggiata centrale tratto compreso tra P.zza Mordini/Crispi (escluse) e Piazza R. Settimo/Castelnuovo, chiusura al transito veicolare dalle ore 08.00 balle ore 20.00.
p1713
sg4
(lp1714
F38.12999639659542
aF13.352209584130833
asg6
S'1921'
p1715
sa(dp1716
g2
VVia Ruggero&nbsp;Settimo, tratto compreso tra P.zza Ruggero Settimo/Amari e la Via Cavour, chiusura al transito veicolare dalle ore 08.00 alle ore 20.00.
p1717
sg4
(lp1718
F38.1242363
aF13.356085600000029
asg6
S'1922'
p1719
sa(dp1720
g2
VViale Diana e Viale Ercole (Parco della Favorita), chiusura la transito veicolare dalle ore 08.00 alle ore 15.00, in occasione manifestazione &quot;La Domenica in Favorita 2017&quot;.
p1721
sg4
(lp1722
F38.159624249655536
aF13.342219591140747
asg6
S'1923'
p1723
sa(dp1724
g2
VVia Padre Messina Giovanni chiusura al transito dalle ore 07 alle ore 20.30, in occasione manifestazione &quot;Tutti i polpoli per la giustizia e la Pace&quot;.
p1725
sg4
(lp1726
F38.11369966568469
aF13.37799491216424
asg6
S'1924'
p1727
sa(dp1728
g2
VPiazza Valdesi, nel tratto compreso tra il prolungamento del Viale P.pe di Scalea e Viale Regina Elena (Emiciclo), chiusura la transito, per attivit&agrave; promozionale.
p1729
sg4
(lp1730
F38.197120567309
aF13.331452392590336
asg6
S'1925'
p1731
sa(dp1732
g2
VVia PV 46 tratto compreso tra Viale Cesare Brandi prima della Via Patti su entrambe le carreggiate separate da guard-rail, chiusura al transito veicolare dalle ore 08.00 alle ore 13.00.
p1733
sg4
(lp1734
F38.186351618956465
aF13.315539384100362
asg6
S'1926'
p1735
sa(dp1736
g2
VVia Decollati, Parrocchia Maria SS. del Carmelo &quot;ai Decollati&quot;, dalle ore 17 muover&agrave; processione attraverso C.so dei Mille, Ponte delle Teste, Piazza Scaffa, Via G.le G. Bennici, Viale dei Picciotti, Via M. Adorno, Via Ponte di Mare, Piazza S. Erasmo, Via Padre Messina, Via Tiro a Segno, Via Decollati e rientro in Parrocchia.
p1737
sg4
(lp1738
F38.10452478576384
aF13.370286226272583
asg6
S'1927'
p1739
sa(dp1740
g2
VViale Regina Elena, tratto finale dopo Viale Principessa Giovanna, chiusura al transito veicolare, per attivit&agrave; sportive.
p1741
sg4
(lp1742
F38.19677471460757
aF13.336152601987123
asg6
S'1928'
p1743
sa(dp1744
g2
VCorso Tukory 127 sinistro stradale,possibili rallentamenti, procedere con prudenza.
p1745
sg4
(lp1746
F38.1092591
aF13.361659700000018
asg6
S'1929'
p1747
sa(dp1748
g2
VVia Carducci altezza civico 30 lavori sede stradale possibili rallentamenti.
p1749
sg4
(lp1750
F38.1246201
aF13.352701000000025
asg6
S'1930'
p1751
sa(dp1752
g2
VCorso Calatafimi altezza via Gino Marinuzzi &nbsp;lavori sede stradale possibili rallentamenti.
p1753
sg4
(lp1754
F38.10493526203643
aF13.334764465606668
asg6
S'1931'
p1755
sa(dp1756
g2
VVia Bragaglia altezza civico 24 lavori sede stradale possibili rallentamenti.
p1757
sg4
(lp1758
F38.1034619
aF13.321396100000015
asg6
S'1932'
p1759
sa(dp1760
g2
VVia Degli Emiri altezza civico 28 lavori sede stradale possibili rallentamenti.
p1761
sg4
(lp1762
F38.1154763
aF13.333932000000004
asg6
S'1933'
p1763
sa(dp1764
g2
VVia XX Settembre altezza civico 17 lavori sede stradale possibili rallentamenti.
p1765
sg4
(lp1766
F38.1257751
aF13.353372300000046
asg6
S'1934'
p1767
sa(dp1768
g2
VVia Libert&agrave; altezza via La Marmora incidente stradale possibili rallentamenti.
p1769
sg4
(lp1770
F38.141934951761556
aF13.34445655554191
asg6
S'1935'
p1771
sa(dp1772
g2
VForo Umberto I altezza via Lincoln incidente stradale possibili rallentamenti.
p1773
sg4
(lp1774
F38.11514607052523
aF13.375979939208946
asg6
S'1936'
p1775
sa(dp1776
g2
VVia Mauro De Mauro altezza via Castellana incidente stradale possibili rallentamenti.
p1777
sg4
(lp1778
F38.125998034682574
aF13.30244894655766
asg6
S'1937'
p1779
sa(dp1780
g2
VVia Nicoletti altezza &nbsp;via Rizzuto&nbsp;incidente stradale possibili rallentamenti.
p1781
sg4
(lp1782
F38.1909161857721
aF13.291513578851323
asg6
S'1938'
p1783
sa(dp1784
g2
VLimitazione della circolazione veicolare per lavori urgenti ENEL, in Corso Calatafimi - Via Gino Marinuzzi, possibili rallentamenti.&nbsp;&nbsp;
p1785
sg4
(lp1786
F38.104922761407046
aF13.334763707934599
asg6
S'1939'
p1787
sa(dp1788
g2
VLimitazione della circolazione veicolare per lavori urgenti ENEL in Via Cavallacci Pietratagliata civ.24 possibili rallentamenti.
p1789
sg4
(lp1790
F38.1026455
aF13.321528100000023
asg6
S'1940'
p1791
sa(dp1792
g2
VLimitazione della circolazione veicolare per lavori urgenti AMAP in Via Carducci alt.civ.30 possibili rallentamenti.
p1793
sg4
(lp1794
F38.1246201
aF13.352701000000025
asg6
S'1941'
p1795
sa(dp1796
g2
VLimitazione della circolazione veicolare e della sosta in Piazza Sett&#39; Angeli per consentire lo svolgimento della manifestazione denominata 74&deg; Anniversario del bombardamento di Palermo.
p1797
sg4
(lp1798
F38.11469170000001
aF13.35657040000001
asg6
S'1942'
p1799
sa(dp1800
g2
VChiusura parziale per lavori di&nbsp;scarifica e stendimento tappetino d&#39;usura nella Via Degli Emiri civ.28 possibili rallentamenti.
p1801
sg4
(lp1802
F38.1154763
aF13.333932000000004
asg6
S'1943'
p1803
sa(dp1804
g2
VChiusura parziale per Lavori di scarifica e stendimento tappetino d&#39;usura nella Via XX Settembre altezza civ.17 possibili rallentamenti.
p1805
sg4
(lp1806
F38.1257751
aF13.353372300000046
asg6
S'1944'
p1807
sa(dp1808
g2
VLimitazione temporanea della circolazione veicolare e pedonale dal 06 Maggio sino al 20 Settembre 2017&nbsp;in Viale Regina Elena tratto finale dopo Viale Principessa Giovanna &nbsp;per consentire lo svolgimento di &quot; Attivit&agrave; Sportive Dilettantistiche di Vela Nuoto e Canottaggio&quot;.
p1809
sg4
(lp1810
F38.19634506711844
aF13.334986972799697
asg6
S'1945'
p1811
sa(dp1812
g2
VIncidente stradale in&nbsp;Via Aspromonte alt civ.15 &nbsp;procedere con prudenza possibili rallentamenti.
p1813
sg4
(lp1814
F38.14065284394291
aF13.332131961376945
asg6
S'1946'
p1815
sa(dp1816
g2
VCORSO CALATAFIMI /PINDEMONTE INCIDENTE STRADALE -POSSIBILI RALLENTAMENTI PROCEDERE CON PRUDENZA
p1817
sg4
(lp1818
F38.1103242
aF13.336969100000033
asg6
S'1950'
p1819
sa(dp1820
g2
VVia Giorgio Arcoleo angolo Via Morso incidente stradale; procedere con prudenza.
p1821
sg4
(lp1822
F38.1067081
aF13.361306900000045
asg6
S'1951'
p1823
sa(dp1824
g2
VVia Noce 70 incidente stradale; procedere con prudenza; in atto chiusura totale tra via Lancia Di Brolo e Via Littara.
p1825
sg4
(lp1826
F38.120958
aF13.335333900000023
asg6
S'1952'
p1827
sa(dp1828
g2
VVia Laurana per le ore 09.00 avr&agrave; luogo una manifestazione con presidio. Possibili rallentamenti al flusso veicolare.
p1829
sg4
(lp1830
F38.1356957
aF13.352806900000019
asg6
S'1953'
p1831
sa(dp1832
g2
VVia Trinacria,36 possibili rallentamenti al flusso veicolare causa manifestazione con Presidio.
p1833
sg4
(lp1834
I0
aI0
asg6
S'1954'
p1835
sa(dp1836
g2
VPiazza Indipendenza alle ore 10.00 prevista manifestazione con presidio. Possibili rallentamenti al flusso veicolare.
p1837
sg4
(lp1838
F38.1108974
aF13.351589699999977
asg6
S'1955'
p1839
sa(dp1840
g2
VChiusura al transito veicolare per lavori di scavo Via Capo Gallo 16. Possibili rallentamenti.
p1841
sg4
(lp1842
F38.2037825
aF13.31343979999997
asg6
S'1956'
p1843
sa(dp1844
g2
VVia Altofonte 433/A chiusura parziale al transito per lavori di scavo. Si consigliano percorsi alternativi.
p1845
sg4
(lp1846
F38.0707607
aF13.327393799999982
asg6
S'1957'
p1847
sa(dp1848
g2
VCorso Calatafimi 92 incidente stradale. Possibili rallentamenti.
p1849
sg4
(lp1850
F38.1085993
aF13.34389740000006
asg6
S'1958'
p1851
sa(dp1852
g2
VVia Scoto - via E. L.Emiro incidente stradale. Possibili rallentamenti.
p1853
sg4
(lp1854
F38.1137771
aF13.33380139999997
asg6
S'1959'
p1855
sa(dp1856
g2
VVia Leonardo da Vinci, 310, causa lavori di scavo su rete elettrica, possibili rallentamenti.
p1857
sg4
(lp1858
F38.1268992
aF13.321216400000026
asg6
S'1960'
p1859
sa(dp1860
g2
VVia Mattei, 27, causa lavori di scavo su rete elettrica, possibili rallentamenti.
p1861
sg4
(lp1862
F38.1905811
aF13.32178220000003
asg6
S'1961'
p1863
sa(dp1864
g2
VVia Bragaglia, causa lavori di scavo su rete elettrica, possibili rallentamenti.
p1865
sg4
(lp1866
F38.1027478
aF13.321605200000022
asg6
S'1962'
p1867
sa(dp1868
g2
VCorso Calatafimi angolo Via Gino&nbsp;Marinuzzi, causa lavori di scavo su rete elettrica, possibili rallentamenti.
p1869
sg4
(lp1870
F38.10486452901837
aF13.33482698734133
asg6
S'1963'
p1871
sa(dp1872
g2
VVia Luigi cadorna, 4/B, causa lavori di scavo su rete fognaria, probabili rallentamenti.
p1873
sg4
(lp1874
F38.110718
aF13.355517200000008
asg6
S'1964'
p1875
sa(dp1876
g2
VVia Trinacria, 38, sede Assessorato Regionale delle Politiche Sociali e del Lavoro, causa manifestazione con presidiuo dipendenti IPAB, possibili rallentamenti.
p1877
sg4
(lp1878
F38.1487148
aF13.338156499999968
asg6
S'1965'
p1879
sa(dp1880
g2
VVia Laurana, sede INPS, causa manifestazione con presidio di lavoratori edili, possibili rallentamenti.
p1881
sg4
(lp1882
F38.1356957
aF13.352806900000019
asg6
S'1966'
p1883
sa(dp1884
g2
VPiazza Ponte Ammiraglio altezza Via Buonriposo, causa incidente stradale, possibili rallentamenti.
p1885
sg4
(lp1886
F38.10468519883431
aF13.374609946557598
asg6
S'1969'
p1887
sa(dp1888
g2
VVia Imperatore Federico altezza via Sadat&nbsp;&nbsp;incidente stradale possibili rallentamenti.
p1889
sg4
(lp1890
F38.14692628824057
aF13.352544036523454
asg6
S'1970'
p1891
sa(dp1892
g2
VVia Dei Quartieri altezza civico 106 incidente stradale possibili rallentamenti.
p1893
sg4
(lp1894
F38.1632549
aF13.329563099999973
asg6
S'1971'
p1895
sa(dp1896
g2
VVia Leonardo Da Vinci &nbsp;altezza civico 188 incidente stradale possibili rallentamenti.
p1897
sg4
(lp1898
F38.1275303
aF13.32531449999999
asg6
S'1972'
p1899
sa(dp1900
g2
VCorso Dei Mille altezza civico 1019 lavori sede stradale possibili rallentamenti.
p1901
sg4
(lp1902
F38.0946629
aF13.403394400000025
asg6
S'1973'
p1903
sa(dp1904
g2
VVia Fondo Petix altezza civico 40 lavori sede stradale possibili rallentamenti.
p1905
sg4
(lp1906
F38.1424802
aF13.310365499999989
asg6
S'1974'
p1907
sa(dp1908
g2
VVia Luigi Cadorna altezza civico 4 lavori sede stradale possibili rallentamenti.
p1909
sg4
(lp1910
F38.110718
aF13.355517200000008
asg6
S'1975'
p1911
sa(dp1912
g2
VSottopasso via Francesco Crispi direzione via Montepellegrino incidente stradale possibili rallentamenti.
p1913
sg4
(lp1914
F38.12632777576912
aF13.363004248162724
asg6
S'1978'
p1915
sa(dp1916
g2
VVia Libert&agrave; altezza via Mondini incidente stradale possibili rallentamenti.
p1917
sg4
(lp1918
F38.13496311367684
aF13.348915577771095
asg6
S'1979'
p1919
sa(dp1920
g2
VINCIDENTE STRADALE VIA IMPERATORE FEDERICO/P.ZZA DON BOSCO - POSSIBILI RALLENTAMENTI
p1921
sg4
(lp1922
F38.14493351084569
aF13.346378541278114
asg6
S'1980'
p1923
sa(dp1924
g2
VINCIDENTE STRADALE VIA CIMAROSA/BOITO - POSSIBILI RALLENTAMENTI
p1925
sg4
(lp1926
F38.12932036840736
aF13.341320053967138
asg6
S'1981'
p1927
sa(dp1928
g2
VVia Salvatore Attinelli incidente stradale procedere con prudenza&nbsp;possibili rallentamenti.
p1929
sg4
(lp1930
F38.1332755
aF13.303885300000047
asg6
S'1982'
p1931
sa(dp1932
g2
VVia Fondo Petix,40 prevista chiusura al transito veicolare causa lavori di scavo su sede stradale.&nbsp;
p1933
sg4
(lp1934
F38.1424802
aF13.310365499999989
asg6
S'1983'
p1935
sa(dp1936
g2
VVia Carducci,30 possibili rallentamenti al flusso veicolare causa lavori urgenti su sede stradale.
p1937
sg4
(lp1938
F38.1246201
aF13.352701000000025
asg6
S'1984'
p1939
sa(dp1940
g2
VVia Leonardo Da Vinci tratto compreso tra la Via L. Ruggeri ed il civico 392/T prevista dalle ore 09.30 alle ore 13.00 manifestazione. Possibili i rallentamenti al flusso veicolare.
p1941
sg4
(lp1942
F38.12692130219514
aF13.318397534332234
asg6
S'1985'
p1943
sa(dp1944
g2
VVia Manin altezza intersezione con Via Corleo possibili rallentamenti al flusso veicolare causa sinistro stradale&nbsp;
p1945
sg4
(lp1946
F38.12994915377315
aF13.353226434779344
asg6
S'1986'
p1947
sa(dp1948
g2
VVia Manin altezza intersezione con Via Corleo normale flusso veicolare ripristinato.
p1949
sg4
(lp1950
F38.12994071433738
aF13.35331762988585
asg6
S'1987'
p1951
sa(dp1952
g2
VVia Messina Marine,182, possibili rallentamenti al flusso veicolare causa sinistro stradale.
p1953
sg4
(lp1954
F38.1016618
aF13.39885060000006
asg6
S'1988'
p1955
sa(dp1956
g2
VOggi dalle ore 15.00 alle 20.00 chiusura al traffico veicolare di Piazza &nbsp;Ruggero Settimo e&nbsp;Via Ruggero Settimo
p1957
sg4
(lp1958
F38.1246674
aF13.356491799999958
asg6
S'1989'
p1959
sa(dp1960
g2
VOggi dalle ore 20.00 alle ore 03.00 del giorno&nbsp;seguente, chiusura al traffico veicolare di via Candelai per svolgimento manifestazione culturale
p1961
sg4
(lp1962
F38.1167133
aF13.359095300000035
asg6
S'1990'
p1963
sa(dp1964
g2
VDalle ore 21.00 e sino al termine della fiaccolata chiusura al transito veicolare al passaggio della processione religiosa di via Notarbartolo, zona chiesa S. Francesco di Sales&nbsp;
p1965
sg4
(lp1966
F38.1322559
aF13.343914199999972
asg6
S'1991'
p1967
sa(dp1968
g2
VOggi dalle ore 17.00 e sino al termine della manifestazione,&nbsp;chiusura al transito veicolare al passaggio della processione religiosa di via Paruta e strade limitrofe alla&nbsp;zona della&nbsp;chiesa S. Basilio Magno
p1969
sg4
(lp1970
F38.0944419
aF13.319502499999999
asg6
S'1992'
p1971
sa(dp1972
g2
VOGGI CHIUSURA &nbsp;DALLE ORE 08.00 ALLE ORE 20.00 DI VIA LIBERTA&#39;
p1973
sg4
(lp1974
F38.1360502
aF13.349503099999993
asg6
S'1993'
p1975
sa(dp1976
g2
VOGGI DALLE ORE 07.00 E SINO A CESSATE ESIGENZA E&#39; DISPOSTA LA CHIUSURA AL PASSAGGIO DEI PARTECIPANTI ALL&#39;EVENTO CYCLOPRIDE DAY- PARTENZA DA PIAZZA CASTELNUOVO-
p1977
sg4
(lp1978
F38.1248467
aF13.35494319999998
asg6
S'1994'
p1979
sa(dp1980
g2
VINCIDENTE STRADALE VIA VERGINE&nbsp;MARIA CIV 61 -PROCEDERE CON PRUDENZA POSSIBILI RALLENTAMENTI-
p1981
sg4
(lp1982
F38.1624839
aF13.370353799999975
asg6
S'1995'
p1983
sa(dp1984
g2
VINCIDENTE STRADALE VIA DEI NEBRODI VIA MADONIA- PROCEDERE CON PRUDENZA -POSSBILI RALLENTAMENTI
p1985
sg4
(lp1986
F38.1497388
aF13.329378399999996
asg6
S'1996'
p1987
sa(dp1988
g2
VINCIDENTE STRADALE VIA MATER DOLOROSA ALT PIAZZA BELLISSIMMA- POSSIBILI RALLENTAMENTI PROCEDERE CON PRUDENZA
p1989
sg4
(lp1990
F38.1742436
aF13.331854300000032
asg6
S'1997'
p1991
sa(dp1992
g2
VVIALE REGINA ELENA 26 INCIDENTE STRADALE. POSSIBILI RALLENTAMENTI, PROCEDERE CON PRUDENZA.
p1993
sg4
(lp1994
F38.2010092
aF13.327139200000033
asg6
S'1998'
p1995
sa(dp1996
g2
VORE 13.30 AVVENUTA RIAPERTURA CIRCUITO &quot; CYCLOPRIDE DAY 2017 &quot;. RIPRISTINATA NORMALE VIABILITA&#39;.
p1997
sg4
(lp1998
I0
aI0
asg6
S'1999'
p1999
sa(dp2000
g2
VVIA PERSEO INCROCIO VIA ARIANNA INCIDENTE STRADALE. POSSIBILI RALLENTAMENTI , PROCEDERE CON PRUDENZA.
p2001
sg4
(lp2002
F38.1900128
aF13.323901999999975
asg6
S'2000'
p2003
sa(dp2004
g2
VPiazza Goffredo Mameli,possibili rallentamenti al flusso veicolare causa sinistro stradale.
p2005
sg4
(lp2006
F38.1296961
aF13.350097300000016
asg6
S'2001'
p2007
sa(dp2008
g2
VVia Villagrazia nr. 367 possibili rallentamenti al flusso veicolare causa sinistro stradale.
p2009
sg4
(lp2010
F38.0825945
aF13.336187699999982
asg6
S'2002'
p2011
sa(dp2012
g2
VVia Crocefisso civico 9 lavori Enel sulla sede stradale; possibili rallentamenti.
p2013
sg4
(lp2014
F38.1031386
aF13.326312599999937
asg6
S'2003'
p2015
sa(dp2016
g2
VViale Regina Margherita di Savoia angolo Via Deianira lavori Terna Rete Italia sulla sede stradale; possibili rallentamenti.
p2017
sg4
(lp2018
F38.185984
aF13.333407899999997
asg6
S'2004'
p2019
sa(dp2020
g2
VVia Trinacria 34,pressi Assessorato Regionale della Famiglia, dalle ore 16.00 presidio di operatori della Formazione Professionale ex Sportelli Multifunzionali; possibili rallentamenti.
p2021
sg4
(lp2022
F38.1483167
aF13.338119199999937
asg6
S'2005'
p2023
sa(dp2024
g2
VPIazza Ruggero Settimo, presso Teatro Politeama,dalle ore 17.00 avr&agrave; luogo la celebrazione del 71 anniversario dell&#39;Autonomia Siciliana; possibili rallentamenti in zona.
p2025
sg4
(lp2026
F38.1246674
aF13.356491799999958
asg6
S'2006'
p2027
sa(dp2028
g2
VVia Squarcialupo 45, pressi Conservatorio di Musica &quot; V. Bellini &quot;, manifestazione internazionale &quot; IRC 2017 - International Rostrum of Composers; possibili rallentamenti.
p2029
sg4
(lp2030
F38.12144
aF13.364029999999957
asg6
S'2007'
p2031
sa(dp2032
g2
VVia Villagrazia 54 incidente stradale; procedere con prudenza; possibili rallentamenti.
p2033
sg4
(lp2034
F38.0945259
aF13.362116900000046
asg6
S'2008'
p2035
sa(dp2036
g2
VPiazzetta Sperone incidente stradale; procedere con prudenza; possibili rallentamenti.
p2037
sg4
(lp2038
F38.0989513
aF13.405651799999987
asg6
S'2009'
p2039
sa(dp2040
g2
VVia Francesco Paolo Di Blasi angolo Via della Libert&agrave; incidente stradale; procedere con prudenza; possibili rallentamenti.
p2041
sg4
(lp2042
F38.139985
aF13.345727300000021
asg6
S'2010'
p2043
sa(dp2044
g2
VViale Margherita di Savoia altezza via Deianira sulla semicarreggiata direzione mare,possibili rallentamenti causa lavori urgenti alla rete elettrica.
p2045
sg4
(lp2046
F38.185975729176235
aF13.333616873016354
asg6
S'2011'
p2047
sa(dp2048
g2
VVia Crocefisso altezza civ.9 scavo con chiusura parziale della&nbsp;sede stradale, per lavori urgenti alla rete elettrica, possibili rallentamenti.
p2049
sg4
(lp2050
F38.1031386
aF13.326312599999937
asg6
S'2012'
p2051
sa(dp2052
g2
VVia Stradella Cartiera Grande 6 chiusura parziale della sede stradale per lavori urgenti alla rete fognaria,possibili rallentamenti,procedere con prudenza.
p2053
sg4
(lp2054
F38.077311
aF13.31082850000007
asg6
S'2013'
p2055
sa(dp2056
g2
VVia Trabucco 119 chiusura parziale della sede stradale per lavori urgenti alla rete fognaria,possibili rallentamenti,procedere con prudenza.
p2057
sg4
(lp2058
F38.1504224
aF13.315639499999975
asg6
S'2014'
p2059
sa(dp2060
g2
VVia Chirone 6 chiusura parziale della sede stradale per lavori urgenti alla rete fognaria,possibili rallentamenti,procedere con prudenza.
p2061
sg4
(lp2062
F38.1943764
aF13.315338300000008
asg6
S'2015'
p2063
sa(dp2064
g2
VVia Buonriposo/via Oreto sinistro stradale,possibili rallentamenti, procedere con prudenza.
p2065
sg4
(lp2066
F38.0993117863954
aF13.372153251312284
asg6
S'2018'
p2067
sa(dp2068
g2
VVia Rapisardi/viale Della Libert&agrave; sinistro stradale, possibili rallentamenti, procedere con prudenza.
p2069
sg4
(lp2070
F38.13602477952321
aF13.348290461793567
asg6
S'2019'
p2071
sa(dp2072
g2
VVia &nbsp;Cusmano&nbsp;altezza via Catania incidente stradale procedere con prudenza.
p2073
sg4
(lp2074
F38.12475049940329
aF13.347936316393998
asg6
S'2022'
p2075
sa(dp2076
g2
VVia Michele Amari altezza civico 21 incidente stradale procedere con prudenza.
p2077
sg4
(lp2078
F38.1254775
aF13.359469399999966
asg6
S'2023'
p2079
sa(dp2080
g2
VLimitazione della circolazione veicolare in Viale Regina Margherita di Savoia angolo Via Deianira&nbsp;per lavori urgenti&nbsp;TERNA Rete Italia,possibili rallentamenti.&nbsp;
p2081
sg4
(lp2082
F38.186021954841195
aF13.333376359802287
asg6
S'2024'
p2083
sa(dp2084
g2
VLimitazione della circolazione veicolare e pedonale e della sosta nella Via Francesco Lo Jacono alt. civ.15, per lavori di scavo ENEL OPEN FIBER, possibili rallentamenti.
p2085
sg4
(lp2086
F38.13242824699707
aF13.345647237573303
asg6
S'2025'
p2087
sa(dp2088
g2
VLimitazione della circolazione pedonale e della sosta &nbsp;in Via Falsomiele,per lavori di scavo ENEL possibili rallentamenti.
p2089
sg4
(lp2090
F38.0767982
aF13.365510200000017
asg6
S'2026'
p2091
sa(dp2092
g2
VLimitazione della circolazione veicolare e pedonale e della sosta in Via Emiro Giafar,per lavori di scavo ENEL possibili rallentamenti.
p2093
sg4
(lp2094
I0
aI0
asg6
S'2027'
p2095
sa(dp2096
g2
VLimitazione della circolazione veicolare per lavori AMAP in Via Trabucco civ.119,possibili rallentamenti.
p2097
sg4
(lp2098
F38.1504224
aF13.315639499999975
asg6
S'2028'
p2099
sa(dp2100
g2
VLimitazione della circolazione veicolare in Via Crocifisso a Pietratagliata&nbsp;civ.9 per lavori ENEL,possibili rallentamenti.
p2101
sg4
(lp2102
F38.1031386
aF13.326312599999937
asg6
S'2029'
p2103
sa(dp2104
g2
VChiusura al transito veicolare per lavori urgenti AMAP in Via Evangelista Di Blasi tratto Via Agordat - Via Roccazzo,possibili rallentamenti.
p2105
sg4
(lp2106
F38.1259785
aF13.314055800000006
asg6
S'2030'
p2107
sa(dp2108
g2
VLimitazione della circolazione veicolare per lavori urgenti AMAP in Via dell&#39; Ermellino civ 6-8,possibili rallentamenti.
p2109
sg4
(lp2110
F38.0851488
aF13.35693230000004
asg6
S'2031'
p2111
sa(dp2112
g2
VViale Regione Siciliana corsia laterale direzione Catania altezza via Laudicina incidente stradale possibili rallentamenti.
p2113
sg4
(lp2114
F38.086695760390256
aF13.404700628002956
asg6
S'2032'
p2115
sa(dp2116
g2
VVia S. Filippo altezza civico 14 incidente stradale possibili rallentamenti.
p2117
sg4
(lp2118
F38.0930849
aF13.360724399999981
asg6
S'2033'
p2119
sa(dp2120
g2
VVia Sardegna altezza civico 51 incidente stradale possibili rallentamenti.
p2121
sg4
(lp2122
F38.145045
aF13.331778600000007
asg6
S'2034'
p2123
sa(dp2124
g2
VViale Della Resurrezione altezza civico 53 incidente stradale possibili rallentamenti.
p2125
sg4
(lp2126
F38.1688782
aF13.322372299999984
asg6
S'2035'
p2127
sa(dp2128
g2
VForo Umberto I altezza via Tiro a Segno incidente stradale possibili rallentamenti.
p2129
sg4
(lp2130
F38.11317285452628
aF13.377869673571809
asg6
S'2036'
p2131
sa(dp2132
g2
VPiazza Leoni &nbsp;altezza civico 5 lavori sede stradale possibili rallentamenti.
p2133
sg4
(lp2134
F38.1455598
aF13.345759499999986
asg6
S'2037'
p2135
sa(dp2136
g2
VVia Mondello altezza civico 17 incidente stradale possibili rallentamenti.
p2137
sg4
(lp2138
F38.2067403
aF13.324943899999994
asg6
S'2038'
p2139
sa(dp2140
g2
VViale Michelangelo altezza via Mauro De Mauro incidente stradale possibili rallentamenti.
p2141
sg4
(lp2142
F38.13079173599821
aF13.303822237573286
asg6
S'2039'
p2143
sa(dp2144
g2
VViale Regione Siciliana corsia centrale direzione Trapani altezza via Nina Siciliana incidente stradale possibili rallentamenti.
p2145
sg4
(lp2146
F38.116361495244966
aF13.329228510034227
asg6
S'2040'
p2147
sa(dp2148
g2
VVia Leonardo da Vinci altezza via Casalini incidente stradale possibili rallentamenti.
p2149
sg4
(lp2150
F38.126734911746006
aF13.313892461377009
asg6
S'2041'
p2151
sa(dp2152
g2
VVia Notarbartolo altezza via Terrasanta incidente stradale possibili rallentamenti.
p2153
sg4
(lp2154
F38.1321075635231
aF13.343520724328641
asg6
S'2042'
p2155
sa(dp2156
g2
VSi segnala manifestazione a piazza Indipendenza con interruzione al traffico veicolare. Si consigliano percorsi alternativi.
p2157
sg4
(lp2158
F38.11042677718886
aF13.352423867003608
asg6
S'2043'
p2159
sa(dp2160
g2
VVia Libert&agrave;, 37, causa presidio dipendenti S.A.S., possibili rallentamenti.
p2161
sg4
(lp2162
F38.1291221
aF13.353088200000002
asg6
S'2044'
p2163
sa(dp2164
g2
VVia Cavour, innanzi Villla Whitaker, sede della Prefettura - UTG, causa presidio, possibili rallentamenti e/o blocchi non previsti.
p2165
sg4
(lp2166
F38.12235815189625
aF13.362378760327147
asg6
S'2045'
p2167
sa(dp2168
g2
VPiazza Magione, dalle ore 10.30, partenza corteo per le vie del Centro Storico degli aderenti ad Associazione Addiopizzo, con arrivo in P.zza Verdi
p2169
sg4
(lp2170
F38.1133839
aF13.369574100000023
asg6
S'2046'
p2171
sa(dp2172
g2
VVia dell&#39;Airone, dalle ore 16, causa concentramento per successivo corteo politico, attraverso Via Sanfilippo e Via dell&#39;Orsa Maggiore, raggiungeranno Largo Entella, 3 ove sosteranno in presidio, possibili rallentamenti in zona.
p2173
sg4
(lp2174
F38.0901814
aF13.358353099999931
asg6
S'2047'
p2175
sa(dp2176
g2
VVia Mondello, 17, causa lavori di scavo su rete fognaria, possibili rallentamenti.
p2177
sg4
(lp2178
F38.2067403
aF13.324943899999994
asg6
S'2048'
p2179
sa(dp2180
g2
VPiazza Leoni, 5/D, causa lavori di scavo su rete idrica, possibili rallentamenti.
p2181
sg4
(lp2182
F38.1455598
aF13.345759499999986
asg6
S'2049'
p2183
sa(dp2184
g2
VVia Morozzo della Rocca angolo Via Montegrappa, causa lavori di scavo su rete fognaria, chiiusura parziale al transito veicolare, con possibili rallentamenti in zona.
p2185
sg4
(lp2186
F38.1056817
aF13.353319300000067
asg6
S'2050'
p2187
sa(dp2188
g2
VVia Aloisio&nbsp;Juvara, dal civ. 34 al civ. 42, causa lavori di scavo su rete elettrica, possibili rallentamenti.
p2189
sg4
(lp2190
F38.1382655
aF13.361954200000014
asg6
S'2051'
p2191
sa(dp2192
g2
VVia Marabitti angolo Nicol&ograve; Spedalieri, causa lavori di scavo su rete elettrica, possibili rallentamenti.
p2193
sg4
(lp2194
F38.138652114850494
aF13.36109192698359
asg6
S'2052'
p2195
sa(dp2196
g2
VVia Giovanni Evangelista Di Blasi nel tratto compreso tra Via Agordat e Via Roccazzo, causa lavori di scavo su rete fognaria, chiusura al transito veicolare, con notevoli disagi alla circolazione.
p2197
sg4
(lp2198
F38.12582047152698
aF13.314190842211246
asg6
S'2053'
p2199
sa(dp2200
g2
VVia XX Settembre nel tratto compreso tra Via XII Gennaio e Via Messina; e in Via E. Parisi nel tratto compreso tra Via N. Garzilli e Via della Libert&agrave;, causa manifestazione societaria, chiusura al transito veicolare per l&#39;intera giornata.
p2201
sg4
(lp2202
F38.1265726326836
aF13.352694380425987
asg6
S'2054'
p2203
sa(dp2204
g2
VVia Campolo altezza via &nbsp;Serradifalco incidente stradale possibili rallentamenti.
p2205
sg4
(lp2206
F38.12917901489302
aF13.337852447637943
asg6
S'2055'
p2207
sa(dp2208
g2
VVia Sarullo altezza civico 3 incidente stradale possibili rallentamenti.
p2209
sg4
(lp2210
F38.1236769
aF13.30325270000003
asg6
S'2056'
p2211
sa(dp2212
g2
VChiusura Via V. Emanuele tratto Trivio Bonello-P.zza Villena per manifest. BALLARO&#39; DI PRIMAVERA 2017
p2213
sg4
(lp2214
F38.11545100000001
aF13.36103950000006
asg6
S'2057'
p2215
sa(dp2216
g2
VPiazza XII Vittime, incidente stradale.
p2217
sg4
(lp2218
F38.1231329
aF13.364445700000033
asg6
S'2058'
p2219
sa(dp2220
g2
VPresenza di lavorI Enel Via Juvara dal civ. 34 al civ. 42
p2221
sg4
(lp2222
F38.1382655
aF13.361954200000014
asg6
S'2059'
p2223
sa(dp2224
g2
VEseguito scavo su sede stradale in via Marabitti/via N. Spedalieri per lavori Enel
p2225
sg4
(lp2226
F38.13866453893986
aF13.361085096820034
asg6
S'2060'
p2227
sa(dp2228
g2
VVia Mozambico, 5 - presenza di lavori AMAP
p2229
sg4
(lp2230
F38.123764
aF13.306933399999934
asg6
S'2061'
p2231
sa(dp2232
g2
VL.ma C. Colombo, 5226, eseguito scavo su sede stradale.
p2233
sg4
(lp2234
F38.195021
aF13.339830799999959
asg6
S'2062'
p2235
sa(dp2236
g2
VVia Candelai - chiusura al transito veicolare per manifestazione &quot; Centrononcentro 2017 &quot;
p2237
sg4
(lp2238
F38.1167133
aF13.359095300000035
asg6
S'2063'
p2239
sa(dp2240
g2
VPiazza Verdi dalle ore 10.00 alle ore 21.30 si svolger&agrave; manifestazione &quot; Comitato Addiopizzo&quot;
p2241
sg4
(lp2242
F38.1206363
aF13.356896600000027
asg6
S'2064'
p2243
sa(dp2244
g2
VChiusura della Via Ruggero Settimo dalle ore 08.00 alle ore 20.00 &nbsp;tratto compreso tra la Piazza Ruggero Settimo - Via Emerico Amari e&nbsp;e la Via Cavour.
p2245
sg4
(lp2246
F38.12431291721021
aF13.355826612164265
asg6
S'2065'
p2247
sa(dp2248
g2
VLimitazione della circolazione veicolare, del Viale Diana e Viale del Fante,dalle ore 08.00 alle ore15.00 per consentire lo svolgimento della manifestazione denominata &quot;La Domenica in Favorita&quot; 2017.
p2249
sg4
(lp2250
F38.15492939290745
aF13.339240053442381
asg6
S'2066'
p2251
sa(dp2252
g2
VChiusura al transito veicolare anche per gli autorizzati tratto compreso da Via Matteo Bonello a Piazza Villena,per consentire lo svolgimento della manifestazione denominata &quot;Ballaro&#39; di Primavera 2017&quot;.
p2253
sg4
(lp2254
F38.11346769863745
aF13.355975124822862
asg6
S'2067'
p2255
sa(dp2256
g2
VLimitazione della circolazione veicolare&nbsp;in alcune vie e piazze cittadine per consentire lo svolgimento di una gara podistica nell&#39;ambito della commemorazione della XXV strage di Capaci.
p2257
sg4
(lp2258
F38.1537202
aF13.340246799999932
asg6
S'2068'
p2259
sa(dp2260
g2
VChiusura al transito veicolare dalle ore 08.00 alle ore 20.00 della carreggiata centrale di Viale della Liberta&#39; tratto compreso tra Piazza Mordini/Crispi ( escluse) e Piazza Ruggero Settimo/Castelnuovo ela Via Cavour.
p2261
sg4
(lp2262
F38.13006692701009
aF13.35221080740962
asg6
S'2069'
p2263
sa(dp2264
g2
VLimitazione della circolazione veicolare in un tratto&nbsp;di Via Barcarello tra il civ.73/a&nbsp;ed il civico 87 per consentire lo svolgimento del &quot;I&deg;Trofeo Velico Baia di Sferracavallo&quot;.
p2265
sg4
(lp2266
F38.2086809
aF13.282512900000029
asg6
S'2070'
p2267
sa(dp2268
g2
VLimitazione temporanea della circolazione veicolare di Via Maqueda nel tratto compreso tra Piazza Villena e Corso Tukory, e di Piazza s.Nicolo&#39; degli Scalzi e di Via Vittorio Emanuele,nel tratto compreso tra Via Roma e Piazza Villena,per lo svolgimento della manifestazione &quot;XII Festa di Addiopizzo&quot;,
p2269
sg4
(lp2270
I0
aI0
asg6
S'2071'
p2271
sa(dp2272
g2
VLimitazione della circolazione veicolare e pedonale in Viale Regina Elena tratto finale dopo Viale Principessa &nbsp;Giovanna per consentire lo svolgimento della manifestazione sportiva presso il Circolo Canottier Roggero di Lauria.&nbsp;
p2273
sg4
(lp2274
F38.19670341573896
aF13.336129593840042
asg6
S'2072'
p2275
sa(dp2276
g2
VLimitazione della circolazione veicolare in Via Trabucco civ.74 per lavori urgenti ENEL possibili rallentamenti.
p2277
sg4
(lp2278
I0
aI0
asg6
S'2075'
p2279
sa(dp2280
g2
VVia Ernesto Basile, DF. civ.&nbsp;30 incidente stradale, procedere con prudenza.&nbsp;
p2281
sg4
(lp2282
F38.0998714
aF13.346913399999949
asg6
S'2076'
p2283
sa(dp2284
g2
VComunicazione scavo&nbsp;urgente causa guasto cavo telefonico, in Via S. Lorenzo.
p2285
sg4
(lp2286
F38.1646501
aF13.318398900000034
asg6
S'2077'
p2287
sa(dp2288
g2
VVia Vittorio Emanuele tratto via Roma/via Maqueda causa riprese cinematografiche possibili rallentamenti.
p2289
sg4
(lp2290
F38.11655689626773
aF13.36365002488401
asg6
S'2078'
p2291
sa(dp2292
g2
VViale Regione Siciliana corsia centrale direzione Trapani altezza via Delle Madonie incidente stradale possibili rallentamenti.
p2293
sg4
(lp2294
F38.14576496950865
aF13.328947059771735
asg6
S'2079'
p2295
sa(dp2296
g2
VViale Della Resurrezione altezza civico 52 incidente stradale possibili rallentamenti.
p2297
sg4
(lp2298
F38.1695615
aF13.323635999999965
asg6
S'2080'
p2299
sa(dp2300
g2
VVia Enrico&nbsp;Albanese altezza civico 100 incidente stradale possibili rallentamenti.
p2301
sg4
(lp2302
F38.129703
aF13.354166200000009
asg6
S'2081'
p2303
sa(dp2304
g2
VVia Amerigo Vespucci, 11, causa lavori su rete fognaria, possibili rallentamenti.
p2305
sg4
(lp2306
F38.1225085
aF13.335873399999969
asg6
S'2082'
p2307
sa(dp2308
g2
VVia Salvatore Aldisio, causa lavori su rete elettrica, possibili rallentamenti.
p2309
sg4
(lp2310
F38.1556114
aF13.330137000000036
asg6
S'2083'
p2311
sa(dp2312
g2
VVia G. E. Di Blasi tratto compreso tra Via Agordat e Via Roccazzo, causa lavori su rete fognaria, chiusura al transito veicolare nel tratto interessato ai lavori.
p2313
sg4
(lp2314
F38.12587111098523
aF13.313793875277042
asg6
S'2084'
p2315
sa(dp2316
g2
VVia Nazario Sauro, causa manifestazione 25&deg; Anniversario Strage Capaci, chiusa al transito veicolare, si consigliano percorsi alternativi.
p2317
sg4
(lp2318
F38.12570518622955
aF13.329661001574777
asg6
S'2085'
p2319
sa(dp2320
g2
VIn occasione 25&deg; Anniversario &quot;Strage di Capaci&quot;, la citt&agrave; sar&agrave; interessata per tutta la giornata odierna da diverse manifestazioni, con notevoli ripercursioni e chiusure parziali e/o totali al traffico. Personale su strada effettua le dovute deviazioni.
p2321
sg4
(lp2322
I0
aI0
asg6
S'2086'
p2323
sa(dp2324
g2
VVia Ernesto Basile, 108, causa incidente possibili rallentamenti. Personale su strada, prestare attenzione.
p2325
sg4
(lp2326
F38.1048558
aF13.351187299999992
asg6
S'2087'
p2327
sa(dp2328
g2
VVia Isonzo, 2, causa incidente, possibili rallentamenti.
p2329
sg4
(lp2330
F38.141987
aF13.342453100000057
asg6
S'2089'
p2331
sa(dp2332
g2
VVIA ALESSI VIA MAGGIORE TOSELLI BUCA PREOCEDERE CON PRUDENZA-
p2333
sg4
(lp2334
F38.1406137
aF13.350937199999976
asg6
S'2090'
p2335
sa(dp2336
g2
VVia Ariosto angolo via Leopardi incidente stradale possibili rallentamenti procedere con prudenza
p2337
sg4
(lp2338
F38.134397590169044
aF13.345807070639012
asg6
S'2091'
p2339
sa(dp2340
g2
VVia Salvatore Aldisio 4 scavo sulla sede stradale per lavori alla rete elettrica,possibili rallentamenti,procedere con prudenza.
p2341
sg4
(lp2342
F38.1558555
aF13.330553099999975
asg6
S'2092'
p2343
sa(dp2344
g2
VVia Evangelista di Blasi tratto via Agordat/via Roccazzo chiusura parziale della sede stradale per lavori alla rete fognaria.
p2345
sg4
(lp2346
F38.12587386364722
aF13.313850927447447
asg6
S'2093'
p2347
sa(dp2348
g2
Vvia Regione Siciliana nord/ovest 5200 sinistro stradale, possibili rallentamenti, procedere con prudenza.
p2349
sg4
(lp2350
F38.1494892
aF13.324790900000039
asg6
S'2094'
p2351
sa(dp2352
g2
VCorso dei Mille 181 sinistro stradale, possibili rallentamenti, procedere con prudenza.
p2353
sg4
(lp2354
F38.1076527
aF13.37136129999999
asg6
S'2095'
p2355
sa(dp2356
g2
VVia Leonardo Da Vinci 226 sinistro stradale, possibili rallentamenti, procedere con prudenza.
p2357
sg4
(lp2358
F38.1273955
aF13.324774400000024
asg6
S'2096'
p2359
sa(dp2360
g2
VVIA SAMBUCIA 20 CHIUSURA PARZIALE ALLA CIRCOLAZIONE VEICOLARE PER LAVORI ALLA RETE FOGNARIA.
p2361
sg4
(lp2362
F38.0881627
aF13.327153100000032
asg6
S'2099'
p2363
sa(dp2364
g2
VVIA AQUINO 21/C CHIUSURA PARZIALE DELLA SEDE SEDE STRADALE PER LAVORI ALLA RETE FOGNARIA.
p2365
sg4
(lp2366
F38.0815266
aF13.309541099999933
asg6
S'2100'
p2367
sa(dp2368
g2
VVia G. Mignosi altezza civico 2 lavori sede stradale possibili rallentamenti.
p2369
sg4
(lp2370
F38.1105964
aF13.372304799999938
asg6
S'2101'
p2371
sa(dp2372
g2
VVia Gorizia altezza civico 40 lavori sede stradale possibili rallentamenti.
p2373
sg4
(lp2374
F38.1125204
aF13.366823999999951
asg6
S'2102'
p2375
sa(dp2376
g2
VVia Paolo Emiliano&nbsp;Giudici altezza civico 116 lavori sede stradale possibili rallentamenti.
p2377
sg4
(lp2378
F38.10490290000001
aF13.36658310000007
asg6
S'2103'
p2379
sa.